 ExtensionSample

 Timestamp is 65b14bf6 (Wed Jan 24 12:42:14 2024)

 Preferred load address is 0000000180000000

 Start         Length     Name                   Class
 0001:00000000 000000b0H .text$di                CODE
 0001:000000b0 0000ad70H .text$mn                CODE
 0001:0000ae20 00000020H .text$mn$00             CODE
 0001:0000ae40 000008c0H .text$x                 CODE
 0001:0000b700 00000113H .text$yd                CODE
 0002:00000000 00001768H .idata$5                DATA
 0002:00001768 00000010H .00cfg                  DATA
 0002:00001778 00000008H .CRT$XCA                DATA
 0002:00001780 00000018H .CRT$XCL                DATA
 0002:00001798 00000010H .CRT$XCU                DATA
 0002:000017a8 00000008H .CRT$XCZ                DATA
 0002:000017b0 00000008H .CRT$XIA                DATA
 0002:000017b8 00000008H .CRT$XIC                DATA
 0002:000017c0 00000008H .CRT$XIZ                DATA
 0002:000017c8 00000008H .CRT$XLA                DATA
 0002:000017d0 00000008H .CRT$XLZ                DATA
 0002:000017d8 00000008H .CRT$XPA                DATA
 0002:000017e0 00000008H .CRT$XPZ                DATA
 0002:000017e8 00000008H .CRT$XTA                DATA
 0002:000017f0 00000010H .CRT$XTZ                DATA
 0002:000017f8 00000000H .gfids$y                DATA
 0002:00001800 00003c70H .rdata                  DATA
 0002:00005470 00000030H .rdata$T                DATA
 0002:000054a0 000015ecH .rdata$r                DATA
 0002:00006a8c 0000034cH .rdata$zzzdbg           DATA
 0002:00006dd8 00000008H .rtc$IAA                DATA
 0002:00006de0 00000008H .rtc$IZZ                DATA
 0002:00006de8 00000008H .rtc$TAA                DATA
 0002:00006df0 00000010H .rtc$TZZ                DATA
 0002:00006e00 000015d8H .xdata                  DATA
 0002:000083d8 00000088H .xdata$x                DATA
 0002:00008460 00000000H ATL$__a                 DATA
 0002:00008460 00000000H ATL$__z                 DATA
 0002:00008460 00000668H .edata                  DATA
 0002:00008ac8 00000154H .idata$2                DATA
 0002:00008c1c 00000014H .idata$3                DATA
 0002:00008c30 00001768H .idata$4                DATA
 0002:0000a398 00006508H .idata$6                DATA
 0003:00000000 00000040H .data                   DATA
 0003:00000040 000007f0H .data$r                 DATA
 0003:00000830 00000c30H .bss                    DATA
 0004:00000000 00000abcH .pdata                  DATA
 0005:00000000 00000004H .tls                    DATA
 0005:00000004 00000004H .tls$                   DATA
 0005:00000008 00000001H .tls$ZZZ                DATA
 0006:00000000 000000a0H .rsrc$01                DATA
 0006:000000a0 000004a8H .rsrc$02                DATA

  Address         Publics by Value              Rva+Base               Lib:Object

 0000:00000000       __guard_longjmp_count      0000000000000000     <absolute>
 0000:00000000       __dynamic_value_reloc_table 0000000000000000     <absolute>
 0000:00000000       __guard_iat_table          0000000000000000     <absolute>
 0000:00000000       __guard_iat_count          0000000000000000     <absolute>
 0000:00000000       __guard_fids_count         0000000000000000     <absolute>
 0000:00000000       ___safe_se_handler_table   0000000000000000     <absolute>
 0000:00000000       ___safe_se_handler_count   0000000000000000     <absolute>
 0000:00000000       __guard_fids_table         0000000000000000     <absolute>
 0000:00000000       __guard_longjmp_table      0000000000000000     <absolute>
 0000:00000100       __guard_flags              0000000000000100     <absolute>
 0000:00000000       __ImageBase                0000000180000000     <linker-defined>
 0001:000000b0       ?WriteToTechLogFile@@YAXV?$basic_string@DU?$char_traits@D@std@@V?$allocator@D@2@@std@@@Z 00000001800010b0 f   EOH.obj
 0001:000001e0       ?isOpenInGapRange@@YA_NVPrice@@0@Z 00000001800011e0 f   EOH.obj
 0001:000002e0       ?GetCurrentDate@@YA?AV?$basic_string@DU?$char_traits@D@std@@V?$allocator@D@2@@std@@XZ 00000001800012e0 f   EOH.obj
 0001:000005e0       ?GetAccountById@@YAPEAVAccount@@PEBD@Z 00000001800015e0 f   EOH.obj
 0001:00000690       ??0EOH@@QEAA@PEAVTakionMainWnd@@PEAVTakionSettingTabDialog@@@Z 0000000180001690 f   EOH.obj
 0001:000008e0       ??_EEOH@@UEAAPEAXI@Z       00000001800018e0 f i * CIL library *:* CIL module *
 0001:000008e0       ??_GEOH@@UEAAPEAXI@Z       00000001800018e0 f i EOH.obj
 0001:00000930       ??1EOH@@UEAA@XZ            0000000180001930 f   EOH.obj
 0001:000009d0       ?Entering@EOH@@MEAAXXZ     00000001800019d0 f   EOH.obj
 0001:000009f0       ?BeforeDestroy@EOH@@MEAAXXZ 00000001800019f0 f   EOH.obj
 0001:000009f0       ?Leaving@EOH@@MEAAXXZ      00000001800019f0 f   EOH.obj
 0001:00000a50       ?DoDataExchange@EOH@@MEAAXPEAVCDataExchange@@@Z 0000000180001a50 f   EOH.obj
 0001:00000ab0       ?GetMessageMap@EOH@@MEBAPEBUAFX_MSGMAP@@XZ 0000000180001ab0 f   EOH.obj
 0001:00000b20       ?OnRun@EOH@@IEAAXXZ        0000000180001b20 f   EOH.obj
 0001:00000b90       ?OnStop@EOH@@IEAAXXZ       0000000180001b90 f   EOH.obj
 0001:00000c10       ?DoSubscribe@EOH@@IEAA_NXZ 0000000180001c10 f   EOH.obj
 0001:00000ce0       ?OnInitDialog@EOH@@MEAAHXZ 0000000180001ce0 f   EOH.obj
 0001:00000e30       ?Notify@EOH@@MEAAXPEBVMessage@@PEBVObservable@@0@Z 0000000180001e30 f   EOH.obj
 0001:00000fe0       ?InitializeTickerList@EOH@@IEAAXXZ 0000000180001fe0 f   EOH.obj
 0001:00001270       ??_D?$basic_ifstream@DU?$char_traits@D@std@@@std@@QEAAXXZ 0000000180002270 f i EOH.obj
 0001:000012a0       ?InitializeTriggeredList@EOH@@IEAAXXZ 00000001800022a0 f   EOH.obj
 0001:00001950       ??1positionStruct@@QEAA@XZ 0000000180002950 f i EOH.obj
 0001:00001960       ?CheckLogic@EOH@@IEAAXXZ   0000000180002960 f   EOH.obj
 0001:000021c0       ?SendOrder@EOH@@IEAAXPEAVSecurity@@DVPrice@@IE@Z 00000001800031c0 f   EOH.obj
 0001:000027a0       ?GetStructBySymbol@EOH@@IEAA?AUpositionStruct@@V?$basic_string@DU?$char_traits@D@std@@V?$allocator@D@2@@std@@@Z 00000001800037a0 f   EOH.obj
 0001:00002b60       ?CheckPosition@EOH@@IEAAXXZ 0000000180003b60 f   EOH.obj
 0001:00002ff0       ?CheckStopTargetOrders@EOH@@IEAAXPEAVPosition@@UpositionStruct@@@Z 0000000180003ff0 f   EOH.obj
 0001:000033c0       ?CheckKeepPositionTimeExpired@EOH@@IEAAXPEAVPosition@@UpositionStruct@@@Z 00000001800043c0 f   EOH.obj
 0001:00003580       ?CheckOpenPositionTimeExpired@EOH@@IEAAXPEAVPosition@@UpositionStruct@@@Z 0000000180004580 f   EOH.obj
 0001:000036b0       ?CheckIsTargetAlreadyReached@EOH@@IEAAXPEAVPosition@@UpositionStruct@@@Z 00000001800046b0 f   EOH.obj
 0001:00003840       ?AssertValid@CObject@@UEBAXXZ 0000000180004840 f i EOH.obj
 0001:00003840       SecurityRefreshed          0000000180004840 f i ExtensionSample.obj
 0001:00003840       ActiveMmBoxChanged         0000000180004840 f i ExtensionSample.obj
 0001:00003840       MarketSorterNotifyRemoved  0000000180004840 f i ExtensionSample.obj
 0001:00003840       ?__empty_global_delete@@YAXPEAX_K@Z 0000000180004840 f i EOH.obj
 0001:00003840       MessageReport              0000000180004840 f i ExtensionSample.obj
 0001:00003840       ?DoDataExchange@CWnd@@MEAAXPEAVCDataExchange@@@Z 0000000180004840 f i EOH.obj
 0001:00003840       ??3@YAXPEAX0@Z             0000000180004840 f i EOH.obj
 0001:00003840       SymbolEnteredInMmBox       0000000180004840 f i ExtensionSample.obj
 0001:00003840       ?Dump@CObject@@UEBAXAEAVCDumpContext@@@Z 0000000180004840 f i EOH.obj
 0001:00003840       _guard_check_icall_nop     0000000180004840 f i msvcrt:guard_support.obj
 0001:00003840       MarketSorterContentsDone   0000000180004840 f i ExtensionSample.obj
 0001:00003840       MarketSorterNotifyAdded    0000000180004840 f i ExtensionSample.obj
 0001:00003840       MarketSorterNotifyAllRowsRemoved 0000000180004840 f i ExtensionSample.obj
 0001:00003840       ??1?$_String_alloc@U?$_String_base_types@DV?$allocator@D@std@@@std@@@std@@QEAA@XZ 0000000180004840 f i EOH.obj
 0001:00003840       MainThreadAvailableDataProcessed 0000000180004840 f i ExtensionSample.obj
 0001:00003840       ?Serialize@CObject@@UEAAXAEAVCArchive@@@Z 0000000180004840 f i EOH.obj
 0001:00003840       MarketSorterNotifyPrefixChanged 0000000180004840 f i ExtensionSample.obj
 0001:00003840       ?__global_delete@@YAXPEAX_K@Z 0000000180004840 f i * CIL library *:* CIL module *
 0001:00003840       NotifyMarketSorterSymbol   0000000180004840 f i ExtensionSample.obj
 0001:00003840       KeyStrokeAndCommand        0000000180004840 f i ExtensionSample.obj
 0001:00003840       MarketSorterContents       0000000180004840 f i ExtensionSample.obj
 0001:00003840       CommandWindowRemoved       0000000180004840 f i ExtensionSample.obj
 0001:00003840       NextDayStarted             0000000180004840 f i ExtensionSample.obj
 0001:00003840       LayoutChanged              0000000180004840 f i ExtensionSample.obj
 0001:00003850       ??1?$vector@UpositionStruct@@V?$allocator@UpositionStruct@@@std@@@std@@QEAA@XZ 0000000180004850 f i EOH.obj
 0001:00003860       ??1?$vector@PEAVSecurity@@V?$allocator@PEAVSecurity@@@std@@@std@@QEAA@XZ 0000000180004860 f i EOH.obj
 0001:00003870       ??1?$basic_ofstream@DU?$char_traits@D@std@@@std@@UEAA@XZ 0000000180004870 f i EOH.obj
 0001:00003940       ??0?$basic_ofstream@DU?$char_traits@D@std@@@std@@QEAA@XZ 0000000180004940 f i EOH.obj
 0001:00003a50       ??1?$basic_ifstream@DU?$char_traits@D@std@@@std@@UEAA@XZ 0000000180004a50 f i EOH.obj
 0001:00003b20       ??0?$basic_ifstream@DU?$char_traits@D@std@@@std@@QEAA@XZ 0000000180004b20 f i EOH.obj
 0001:00003c00       ?imbue@?$basic_filebuf@DU?$char_traits@D@std@@@std@@MEAAXAEBVlocale@2@@Z 0000000180004c00 f i EOH.obj
 0001:00003c50       ?sync@?$basic_filebuf@DU?$char_traits@D@std@@@std@@MEAAHXZ 0000000180004c50 f i EOH.obj
 0001:00003ca0       ?setbuf@?$basic_filebuf@DU?$char_traits@D@std@@@std@@MEAAPEAV?$basic_streambuf@DU?$char_traits@D@std@@@2@PEAD_J@Z 0000000180004ca0 f i EOH.obj
 0001:00003d90       ?seekpos@?$basic_filebuf@DU?$char_traits@D@std@@@std@@MEAA?AV?$fpos@U_Mbstatet@@@2@V32@H@Z 0000000180004d90 f i EOH.obj
 0001:00003e80       ?seekoff@?$basic_filebuf@DU?$char_traits@D@std@@@std@@MEAA?AV?$fpos@U_Mbstatet@@@2@_JHH@Z 0000000180004e80 f i EOH.obj
 0001:00003f80       ?uflow@?$basic_filebuf@DU?$char_traits@D@std@@@std@@MEAAHXZ 0000000180004f80 f i EOH.obj
 0001:00004250       ?underflow@?$basic_filebuf@DU?$char_traits@D@std@@@std@@MEAAHXZ 0000000180005250 f i EOH.obj
 0001:000042c0       ?pbackfail@?$basic_filebuf@DU?$char_traits@D@std@@@std@@MEAAHH@Z 00000001800052c0 f i EOH.obj
 0001:000043a0       ?overflow@?$basic_filebuf@DU?$char_traits@D@std@@@std@@MEAAHH@Z 00000001800053a0 f i EOH.obj
 0001:00004680       ?_Unlock@?$basic_filebuf@DU?$char_traits@D@std@@@std@@UEAAXXZ 0000000180005680 f i EOH.obj
 0001:000046a0       ?_Lock@?$basic_filebuf@DU?$char_traits@D@std@@@std@@UEAAXXZ 00000001800056a0 f i EOH.obj
 0001:000046c0       ??_E?$basic_ofstream@DU?$char_traits@D@std@@@std@@UEAAPEAXI@Z 00000001800056c0 f i * CIL library *:* CIL module *
 0001:000046c0       ??_G?$basic_ofstream@DU?$char_traits@D@std@@@std@@UEAAPEAXI@Z 00000001800056c0 f i EOH.obj
 0001:00004710       ??_E?$basic_ifstream@DU?$char_traits@D@std@@@std@@UEAAPEAXI@Z 0000000180005710 f i * CIL library *:* CIL module *
 0001:00004710       ??_G?$basic_ifstream@DU?$char_traits@D@std@@@std@@UEAAPEAXI@Z 0000000180005710 f i EOH.obj
 0001:00004760       ??_G?$basic_filebuf@DU?$char_traits@D@std@@@std@@UEAAPEAXI@Z 0000000180005760 f i EOH.obj
 0001:00004760       ??_E?$basic_filebuf@DU?$char_traits@D@std@@@std@@UEAAPEAXI@Z 0000000180005760 f i * CIL library *:* CIL module *
 0001:00004800       ?_Tidy@?$vector@UpositionStruct@@V?$allocator@UpositionStruct@@@std@@@std@@AEAAXXZ 0000000180005800 f i EOH.obj
 0001:000048f0       ?_Tidy@?$vector@PEAVSecurity@@V?$allocator@PEAVSecurity@@@std@@@std@@AEAAXXZ 00000001800058f0 f i EOH.obj
 0001:00004990       ??1sentry@?$basic_ostream@DU?$char_traits@D@std@@@std@@QEAA@XZ 0000000180005990 f i EOH.obj
 0001:000049e0       ?_Reset_back@?$basic_filebuf@DU?$char_traits@D@std@@@std@@AEAAXXZ 00000001800059e0 f i EOH.obj
 0001:00004a10       ?_Endwrite@?$basic_filebuf@DU?$char_traits@D@std@@@std@@IEAA_NXZ 0000000180005a10 f i EOH.obj
 0001:00004c10       ?close@?$basic_filebuf@DU?$char_traits@D@std@@@std@@QEAAPEAV12@XZ 0000000180005c10 f i EOH.obj
 0001:00004c90       ?deallocate@?$_Wrap_alloc@V?$allocator@UpositionStruct@@@std@@@std@@QEAAXPEAUpositionStruct@@_K@Z 0000000180005c90 f i EOH.obj
 0001:00004d10       ??1_Sentry_base@?$basic_ostream@DU?$char_traits@D@std@@@std@@QEAA@XZ 0000000180005d10 f i EOH.obj
 0001:00004d10       ??1_Sentry_base@?$basic_istream@DU?$char_traits@D@std@@@std@@QEAA@XZ 0000000180005d10 f i EOH.obj
 0001:00004d40       ?open@?$basic_filebuf@DU?$char_traits@D@std@@@std@@QEAAPEAV12@PEBDHH@Z 0000000180005d40 f i EOH.obj
 0001:00004e80       ??$?6U?$char_traits@D@std@@@std@@YAAEAV?$basic_ostream@DU?$char_traits@D@std@@@0@AEAV10@PEBD@Z 0000000180005e80 f i EOH.obj
 0001:00005030       ??$endl@DU?$char_traits@D@std@@@std@@YAAEAV?$basic_ostream@DU?$char_traits@D@std@@@0@AEAV10@@Z 0000000180006030 f i EOH.obj
 0001:00005070       ??$?HDU?$char_traits@D@std@@V?$allocator@D@1@@std@@YA?AV?$basic_string@DU?$char_traits@D@std@@V?$allocator@D@2@@0@QEBD$$QEAV10@@Z 0000000180006070 f i EOH.obj
 0001:000050e0       ??$?HDU?$char_traits@D@std@@V?$allocator@D@1@@std@@YA?AV?$basic_string@DU?$char_traits@D@std@@V?$allocator@D@2@@0@$$QEAV10@QEBD@Z 00000001800060e0 f i EOH.obj
 0001:00005150       ??$?HDU?$char_traits@D@std@@V?$allocator@D@1@@std@@YA?AV?$basic_string@DU?$char_traits@D@std@@V?$allocator@D@2@@0@AEBV10@QEBD@Z 0000000180006150 f i EOH.obj
 0001:00005230       ??$?HDU?$char_traits@D@std@@V?$allocator@D@1@@std@@YA?AV?$basic_string@DU?$char_traits@D@std@@V?$allocator@D@2@@0@$$QEAV10@0@Z 0000000180006230 f i EOH.obj
 0001:000052d0       ??$?HDU?$char_traits@D@std@@V?$allocator@D@1@@std@@YA?AV?$basic_string@DU?$char_traits@D@std@@V?$allocator@D@2@@0@AEBV10@$$QEAV10@@Z 00000001800062d0 f i EOH.obj
 0001:00005330       ??$emplace_back@AEBUpositionStruct@@@?$vector@UpositionStruct@@V?$allocator@UpositionStruct@@@std@@@std@@QEAAXAEBUpositionStruct@@@Z 0000000180006330 f i EOH.obj
 0001:00005590       ??$emplace_back@AEBQEAVSecurity@@@?$vector@PEAVSecurity@@V?$allocator@PEAVSecurity@@@std@@@std@@QEAAXAEBQEAVSecurity@@@Z 0000000180006590 f i EOH.obj
 0001:000056e0       ??$use_facet@V?$codecvt@DDU_Mbstatet@@@std@@@std@@YAAEBV?$codecvt@DDU_Mbstatet@@@0@AEBVlocale@0@@Z 00000001800066e0 f i EOH.obj
 0001:000057e0       ?_Xlength@?$vector@UpositionStruct@@V?$allocator@UpositionStruct@@@std@@@std@@CAXXZ 00000001800067e0 f i EOH.obj
 0001:000057e0       ?_Xlength@?$vector@PEAVSecurity@@V?$allocator@PEAVSecurity@@@std@@@std@@CAXXZ 00000001800067e0 f i EOH.obj
 0001:00005800       ?_Change_array@?$vector@UpositionStruct@@V?$allocator@UpositionStruct@@@std@@@std@@AEAAXQEAUpositionStruct@@_K1@Z 0000000180006800 f i EOH.obj
 0001:00005920       ?_Change_array@?$vector@PEAVSecurity@@V?$allocator@PEAVSecurity@@@std@@@std@@AEAAXQEAPEAVSecurity@@_K1@Z 0000000180006920 f i EOH.obj
 0001:000059f0       ?insert@?$basic_string@DU?$char_traits@D@std@@V?$allocator@D@2@@std@@QEAAAEAV12@_KQEBD0@Z 00000001800069f0 f i EOH.obj
 0001:00005b30       ?insert@?$basic_string@DU?$char_traits@D@std@@V?$allocator@D@2@@std@@QEAAAEAV12@_KAEBV12@0_K@Z 0000000180006b30 f i EOH.obj
 0001:00005ca0       ??$_Insert_string@DU?$char_traits@D@std@@_K@std@@YAAEAV?$basic_ostream@DU?$char_traits@D@std@@@0@AEAV10@QEBD_K@Z 0000000180006ca0 f i EOH.obj
 0001:00005e70       ??$getline@DU?$char_traits@D@std@@V?$allocator@D@2@@std@@YAAEAV?$basic_istream@DU?$char_traits@D@std@@@0@$$QEAV10@AEAV?$basic_string@DU?$char_traits@D@std@@V?$allocator@D@2@@0@D@Z 0000000180006e70 f i EOH.obj
 0001:00006050       ??$_Unfancy@UpositionStruct@@@std@@YAPEAUpositionStruct@@PEAU1@@Z 0000000180007050 f i EOH.obj
 0001:00006060       ??$destroy@UpositionStruct@@@?$_Wrap_alloc@V?$allocator@UpositionStruct@@@std@@@std@@QEAAXPEAUpositionStruct@@@Z 0000000180007060 f i EOH.obj
 0001:00006070       ??1sentry@?$basic_istream@DU?$char_traits@D@std@@@std@@QEAA@XZ 0000000180007070 f i EOH.obj
 0001:000060a0       ??$_Uninitialized_move_al_unchecked@PEAUpositionStruct@@PEAU1@V?$allocator@UpositionStruct@@@std@@@std@@YAPEAUpositionStruct@@PEAU1@00AEAU?$_Wrap_alloc@V?$allocator@UpositionStruct@@@std@@@0@U_General_ptr_iterator_tag@0@U_Any_tag@0@@Z 00000001800070a0 f i EOH.obj
 0001:00006130       ??_E?$basic_ifstream@DU?$char_traits@D@std@@@std@@$4PPPPPPPM@A@EAAPEAXI@Z 0000000180007130 f i EOH.obj
 0001:0000613c       ??_E?$basic_ofstream@DU?$char_traits@D@std@@@std@@$4PPPPPPPM@A@EAAPEAXI@Z 000000018000713c f i EOH.obj
 0001:00006148       ??_EEOH@@WFHI@EAAPEAXI@Z   0000000180007148 f i EOH.obj
 0001:00006160       ?Create@CDialog@@UEAAHIPEAVCWnd@@@Z 0000000180007160 f i EOH.obj
 0001:00006170       ??Y?$basic_string@DU?$char_traits@D@std@@V?$allocator@D@2@@std@@QEAAAEAV01@D@Z 0000000180007170 f i EOH.obj
 0001:000061f0       ??0bad_cast@std@@QEAA@XZ   00000001800071f0 f i EOH.obj
 0001:00006210       ??1bad_cast@std@@UEAA@XZ   0000000180007210 f i EOH.obj
 0001:00006230       ??_Ebad_cast@std@@UEAAPEAXI@Z 0000000180007230 f i * CIL library *:* CIL module *
 0001:00006230       ??_Eexception@std@@UEAAPEAXI@Z 0000000180007230 f i * CIL library *:* CIL module *
 0001:00006230       ??_Gexception@std@@UEAAPEAXI@Z 0000000180007230 f i EOH.obj
 0001:00006230       ??_Gbad_cast@std@@UEAAPEAXI@Z 0000000180007230 f i EOH.obj
 0001:00006280       ??0bad_cast@std@@QEAA@AEBV01@@Z 0000000180007280 f i EOH.obj
 0001:000062c0       ?append@?$basic_string@DU?$char_traits@D@std@@V?$allocator@D@2@@std@@QEAAAEAV12@QEBD_K@Z 00000001800072c0 f i EOH.obj
 0001:000063d0       ?what@exception@std@@UEBAPEBDXZ 00000001800073d0 f i EOH.obj
 0001:000063f0       ??0exception@std@@QEAA@AEBV01@@Z 00000001800073f0 f i EOH.obj
 0001:00006430       ??1locale@std@@QEAA@XZ     0000000180007430 f i EOH.obj
 0001:00006470       _scprintf                  0000000180007470 f i EOH.obj
 0001:000064d0       ?assign@?$basic_string@DU?$char_traits@D@std@@V?$allocator@D@2@@std@@QEAAAEAV12@_KD@Z 00000001800074d0 f i EOH.obj
 0001:000065a0       __local_stdio_printf_options 00000001800075a0 f i EOH.obj
 0001:000065b0       sprintf_s                  00000001800075b0 f i EOH.obj
 0001:00006610       ?resize@?$basic_string@DU?$char_traits@D@std@@V?$allocator@D@2@@std@@QEAAX_KD@Z 0000000180007610 f i EOH.obj
 0001:00006710       ??$_Floating_to_string@N@std@@YA?AV?$basic_string@DU?$char_traits@D@std@@V?$allocator@D@2@@0@PEBDN@Z 0000000180007710 f i EOH.obj
 0001:000067d0       ?to_string@std@@YA?AV?$basic_string@DU?$char_traits@D@std@@V?$allocator@D@2@@1@N@Z 00000001800077d0 f i EOH.obj
 0001:00006800       ??_GCStatic@@UEAAPEAXI@Z   0000000180007800 f i EOH.obj
 0001:00006800       ??_ECStatic@@UEAAPEAXI@Z   0000000180007800 f i * CIL library *:* CIL module *
 0001:00006850       ??_GCButton@@UEAAPEAXI@Z   0000000180007850 f i EOH.obj
 0001:00006850       ??_ECButton@@UEAAPEAXI@Z   0000000180007850 f i * CIL library *:* CIL module *
 0001:000068a0       ?BeginModalState@CWnd@@UEAAXXZ 00000001800078a0 f i EOH.obj
 0001:000068b0       ?EndModalState@CWnd@@UEAAXXZ 00000001800078b0 f i EOH.obj
 0001:000068c0       ?append@?$basic_string@DU?$char_traits@D@std@@V?$allocator@D@2@@std@@QEAAAEAV12@AEBV12@_K_K@Z 00000001800078c0 f i EOH.obj
 0001:000069c0       ??$_Integral_to_string@DI@std@@YA?AV?$basic_string@DU?$char_traits@D@std@@V?$allocator@D@2@@0@I@Z 00000001800079c0 f i EOH.obj
 0001:00006a60       ?to_string@std@@YA?AV?$basic_string@DU?$char_traits@D@std@@V?$allocator@D@2@@1@I@Z 0000000180007a60 f i EOH.obj
 0001:00006a80       ?_Xran@?$basic_string@DU?$char_traits@D@std@@V?$allocator@D@2@@std@@SAXXZ 0000000180007a80 f i EOH.obj
 0001:00006aa0       ?erase@?$basic_string@DU?$char_traits@D@std@@V?$allocator@D@2@@std@@QEAAAEAV12@_K0@Z 0000000180007aa0 f i EOH.obj
 0001:00006b40       ?assign@?$basic_string@DU?$char_traits@D@std@@V?$allocator@D@2@@std@@QEAAAEAV12@AEBV12@_K_K@Z 0000000180007b40 f i EOH.obj
 0001:00006c40       ?_Xlen@?$basic_string@DU?$char_traits@D@std@@V?$allocator@D@2@@std@@SAXXZ 0000000180007c40 f i EOH.obj
 0001:00006c60       ?allocate@?$_Wrap_alloc@V?$allocator@D@std@@@std@@QEAAPEAD_K@Z 0000000180007c60 f i EOH.obj
 0001:00006cd0       ?_Copy@?$basic_string@DU?$char_traits@D@std@@V?$allocator@D@2@@std@@QEAAX_K@Z 0000000180007cd0 f i EOH.obj
 0001:00006e40       ?assign@?$basic_string@DU?$char_traits@D@std@@V?$allocator@D@2@@std@@QEAAAEAV12@QEBD_K@Z 0000000180007e40 f i EOH.obj
 0001:00006f40       ?deallocate@?$_Wrap_alloc@V?$allocator@D@std@@@std@@QEAAXPEAD_K@Z 0000000180007f40 f i EOH.obj
 0001:00006fa0       ?_Tidy_deallocate@?$basic_string@DU?$char_traits@D@std@@V?$allocator@D@2@@std@@QEAAXXZ 0000000180007fa0 f i EOH.obj
 0001:00007020       ??1?$basic_string@DU?$char_traits@D@std@@V?$allocator@D@2@@std@@QEAA@XZ 0000000180008020 f i EOH.obj
 0001:00007030       ??3CObject@@SAXPEAX@Z      0000000180008030 f i EOH.obj
 0001:00007040       ??0ExtensionDerivedConfig@@QEAA@XZ 0000000180008040 f   ExtensionDerivedConfig.obj
 0001:000071c0       ??_GExtensionDerivedConfig@@UEAAPEAXI@Z 00000001800081c0 f i ExtensionDerivedConfig.obj
 0001:000071c0       ??_EExtensionDerivedConfig@@UEAAPEAXI@Z 00000001800081c0 f i * CIL library *:* CIL module *
 0001:00007260       ?AddSettings@ExtensionDerivedConfig@@IEAAXXZ 0000000180008260 f   ExtensionDerivedConfig.obj
 0001:00007310       ?Clone@ExtensionDerivedConfig@@UEBAPEAVConfigBase@@XZ 0000000180008310 f   ExtensionDerivedConfig.obj
 0001:00007370       ?Copy@ExtensionDerivedConfig@@UEAAXAEBVConfigBase@@@Z 0000000180008370 f   ExtensionDerivedConfig.obj
 0001:00007380       ?Update@ExtensionDerivedConfig@@UEAAXXZ 0000000180008380 f   ExtensionDerivedConfig.obj
 0001:00007390       _get_startup_argv_mode     0000000180008390 f   msvcrt:argv_mode.obj
 0001:00007390       GetExtensionCode           0000000180008390 f   ExtensionSample.obj
 0001:000073a0       GetExtensionVersion        00000001800083a0 f   ExtensionSample.obj
 0001:000073b0       GetUtilsVersion            00000001800083b0 f   ExtensionSample.obj
 0001:000073c0       GetUtilsHeaderVersion      00000001800083c0 f   ExtensionSample.obj
 0001:000073d0       GetUtilsGuiVersion         00000001800083d0 f   ExtensionSample.obj
 0001:000073e0       GetUtilsGuiHeaderVersion   00000001800083e0 f   ExtensionSample.obj
 0001:000073f0       GetTakionUtilsVersion      00000001800083f0 f   ExtensionSample.obj
 0001:00007400       GetTakionDataHeaderVersion 0000000180008400 f   ExtensionSample.obj
 0001:00007400       GetTakionGuiHeaderVersion  0000000180008400 f   ExtensionSample.obj
 0001:00007400       GetTakionUtilsHeaderVersion 0000000180008400 f   ExtensionSample.obj
 0001:00007410       GetTakionGuiVersion        0000000180008410 f   ExtensionSample.obj
 0001:00007420       GetTakionDataVersion       0000000180008420 f   ExtensionSample.obj
 0001:00007430       GetTakionLogVersion        0000000180008430 f   ExtensionSample.obj
 0001:00007440       GetTakionLogHeaderVersion  0000000180008440 f   ExtensionSample.obj
 0001:00007450       GetObserverVersion         0000000180008450 f   ExtensionSample.obj
 0001:00007460       GetObserverHeaderVersion   0000000180008460 f   ExtensionSample.obj
 0001:00007470       GetReceiverHeaderVersion   0000000180008470 f   ExtensionSample.obj
 0001:00007480       ExtensionIsDebug           0000000180008480 f   ExtensionSample.obj
 0001:00007480       MainThreadIdleState        0000000180008480 f   ExtensionSample.obj
 0001:00007480       ?CurrentAccountSet@MainDialog@@UEAA_NPEAVAccount@@@Z 0000000180008480 f   MainDialog.obj
 0001:00007490       GetTakionExtensionDescription 0000000180008490 f   ExtensionSample.obj
 0001:000074b0       LineDoubleClicked          00000001800084b0 f   ExtensionSample.obj
 0001:000074d0       AppActivated               00000001800084d0 f   ExtensionSample.obj
 0001:000074f0       TakionMoveWindows          00000001800084f0 f   ExtensionSample.obj
 0001:00007520       GetExtensionInfo           0000000180008520 f   ExtensionSample.obj
 0001:00007560       AddMenuItemToString        0000000180008560 f   ExtensionSample.obj
 0001:00007650       GetTakionExtensionMenu     0000000180008650 f   ExtensionSample.obj
 0001:000078b0       ExecuteTakionCommand       00000001800088b0 f   ExtensionSample.obj
 0001:00007db0       ExtensionInitialize        0000000180008db0 f   ExtensionSample.obj
 0001:00007fc0       ExtensionTerminate         0000000180008fc0 f   ExtensionSample.obj
 0001:00008080       CurrentAccountSet          0000000180009080 f   ExtensionSample.obj
 0001:000080a0       OpenLayout                 00000001800090a0 f   ExtensionSample.obj
 0001:000080c0       SaveLayout                 00000001800090c0 f   ExtensionSample.obj
 0001:000080e0       RestoreLayout              00000001800090e0 f   ExtensionSample.obj
 0001:00008100       GetLayoutFilePath          0000000180009100 f   ExtensionSample.obj
 0001:00008130       SaveLayoutAs               0000000180009130 f   ExtensionSample.obj
 0001:00008150       __scrt_stub_for_is_c_termination_complete 0000000180009150 f   msvcrt:ucrt_stubs.obj
 0001:00008150       ?GetApplicationRecoveryParameter@CWinApp@@UEAAPEAXXZ 0000000180009150 f   ExtensionSample.obj
 0001:00008150       _is_c_termination_complete 0000000180009150 f   msvcrt:ucrt_stubs.obj
 0001:00008150       ?GetApplicationRestartFlags@CWinApp@@UEAAKXZ 0000000180009150 f   ExtensionSample.obj
 0001:00008150       ?_AfxInitManaged@@YAHXZ    0000000180009150 f   stdafx.obj
 0001:00008150       TakionCreateExtensionTool  0000000180009150 f   ExtensionSample.obj
 0001:00008160       ??0ExtensionSample@@QEAA@XZ 0000000180009160 f   ExtensionSample.obj
 0001:00008260       ??_GExtensionSample@@UEAAPEAXI@Z 0000000180009260 f i ExtensionSample.obj
 0001:00008260       ??_EExtensionSample@@UEAAPEAXI@Z 0000000180009260 f i * CIL library *:* CIL module *
 0001:00008320       ?InitInstance@ExtensionSample@@UEAAHXZ 0000000180009320 f   ExtensionSample.obj
 0001:000084a0       ?ExitInstance@ExtensionSample@@UEAAHXZ 00000001800094a0 f   ExtensionSample.obj
 0001:000084b0       ?GetApplicationRecoveryPingInterval@CWinApp@@UEAAKXZ 00000001800094b0 f i ExtensionSample.obj
 0001:000084c0       ?RestoreAutosavedFilesAtRestart@CWinApp@@UEBAHXZ 00000001800094c0 f i ExtensionSample.obj
 0001:000084d0       ?ReopenPreviousFilesAtRestart@CWinApp@@UEBAHXZ 00000001800094d0 f i ExtensionSample.obj
 0001:000084e0       ?SupportsAutosaveAtInterval@CWinApp@@UEBAHXZ 00000001800094e0 f i ExtensionSample.obj
 0001:000084f0       ?SupportsAutosaveAtRestart@CWinApp@@UEBAHXZ 00000001800094f0 f i ExtensionSample.obj
 0001:00008500       ?SupportsApplicationRecovery@CWinApp@@UEBAHXZ 0000000180009500 f i ExtensionSample.obj
 0001:00008510       ?SupportsRestartManager@CWinApp@@UEBAHXZ 0000000180009510 f i ExtensionSample.obj
 0001:00008520       ??_ETakionPopupWnd@@UEAAPEAXI@Z 0000000180009520 f i * CIL library *:* CIL module *
 0001:00008520       ??_GTakionPopupWnd@@UEAAPEAXI@Z 0000000180009520 f i ExtensionSample.obj
 0001:00008570       ??_GTakionMessageBox@@UEAAPEAXI@Z 0000000180009570 f i ExtensionSample.obj
 0001:00008570       ??_ETakionMessageBox@@UEAAPEAXI@Z 0000000180009570 f i * CIL library *:* CIL module *
 0001:000085c0       ??2CObject@@SAPEAX_K@Z     00000001800095c0 f i ExtensionSample.obj
 0001:000085d0       ?CreateTitle@@YA?AV?$basic_string@DU?$char_traits@D@std@@V?$allocator@D@2@@std@@AEBQEBDAEB_K@Z 00000001800095d0 f   MainDialog.obj
 0001:000086a0       ??0MainDialog@@QEAA@PEBD_K0@Z 00000001800096a0 f   MainDialog.obj
 0001:000087b0       ??_EMainDialog@@UEAAPEAXI@Z 00000001800097b0 f i * CIL library *:* CIL module *
 0001:000087b0       ??_GMainDialog@@UEAAPEAXI@Z 00000001800097b0 f i MainDialog.obj
 0001:00008800       ?OnInitDialog@MainDialog@@MEAAHXZ 0000000180009800 f   MainDialog.obj
 0001:00008910       ??_GTakionSettingTabDialog@@UEAAPEAXI@Z 0000000180009910 f i MainDialog.obj
 0001:00008910       ??_ETakionSettingTabDialog@@UEAAPEAXI@Z 0000000180009910 f i * CIL library *:* CIL module *
 0001:00008960       ?BeforeDestroy@MainDialog@@MEAAXXZ 0000000180009960 f   MainDialog.obj
 0001:00008980       ?_AtlInitializeCriticalSectionEx@ATL@@YAHPEAU_RTL_CRITICAL_SECTION@@KK@Z 0000000180009980 f i stdafx.obj
 0001:00008988       ?Entering@TakionDialog@@MEAAXXZ 0000000180009988 f   UtilsGui:UtilsGui.dll
 0001:0000898e       ?Leaving@TakionDialog@@MEAAXXZ 000000018000998e f   UtilsGui:UtilsGui.dll
 0001:00008994       ?BeforeDestroy@TakionDialog@@MEAAXXZ 0000000180009994 f   UtilsGui:UtilsGui.dll
 0001:0000899a       ?OnNotify@TakionDialog@@MEAAH_K_JPEA_J@Z 000000018000999a f   UtilsGui:UtilsGui.dll
 0001:000089a0       ?PreTranslateMessage@TakionSettingDialog@@UEAAHPEAUtagMSG@@@Z 00000001800099a0 f   UtilsGui:UtilsGui.dll
 0001:000089a6       ?DoModal@TakionDialog@@UEAA_JXZ 00000001800099a6 f   UtilsGui:UtilsGui.dll
 0001:000089ac       ?OnOK@TakionSettingDialog@@UEAAXXZ 00000001800099ac f   UtilsGui:UtilsGui.dll
 0001:000089b2       ?OnCancel@TakionDialog@@UEAAXXZ 00000001800099b2 f   UtilsGui:UtilsGui.dll
 0001:000089b8       ?GetBkColor@TakionDialog@@UEBAKXZ 00000001800099b8 f   UtilsGui:UtilsGui.dll
 0001:000089be       ?GetBkBrush@TakionDialog@@UEBAPEAVCBrush@@XZ 00000001800099be f   UtilsGui:UtilsGui.dll
 0001:000089c4       ?isOrderDialog@TakionDialog@@UEBA_NXZ 00000001800099c4 f   UtilsGui:UtilsGui.dll
 0001:000089ca       ?isToDestroyOnFocus@TakionDialog@@UEBA_NXZ 00000001800099ca f   UtilsGui:UtilsGui.dll
 0001:000089d0       ?GetCurrentLeaf@TakionSettingPageBase@@UEBAPEBVTakionSettingDialog@@XZ 00000001800099d0 f   UtilsGui:UtilsGui.dll
 0001:000089d6       ?GetCurrentLeaf@TakionSettingPageBase@@UEAAPEAVTakionSettingDialog@@XZ 00000001800099d6 f   UtilsGui:UtilsGui.dll
 0001:000089dc       ?GetFirstTabControl@TakionDialog@@UEBAPEAUHWND__@@XZ 00000001800099dc f   UtilsGui:UtilsGui.dll
 0001:000089e2       ?Apply@TakionSettingDialog@@UEAAXXZ 00000001800099e2 f   UtilsGui:UtilsGui.dll
 0001:000089e8       ?Help@TakionDialog@@UEAAXXZ 00000001800099e8 f   UtilsGui:UtilsGui.dll
 0001:000089ee       ?GetHelpUrl@TakionDialog@@UEBA?AV?$basic_string@DU?$char_traits@D@std@@V?$allocator@D@2@@std@@XZ 00000001800099ee f   UtilsGui:UtilsGui.dll
 0001:000089f4       ?GetTotalValue@TakionDialog@@UEBAPEBDIGPEADI@Z 00000001800099f4 f   UtilsGui:UtilsGui.dll
 0001:000089fa       ?GetTitleRect@TakionDialog@@UEBAXPEBVListBoxOwnerDraw@@AEAVCRect@@1@Z 00000001800099fa f   UtilsGui:UtilsGui.dll
 0001:00008a00       ?isPointForRButtonMenuOk@TakionSettingPageBase@@UEBA_NIVCPoint@@@Z 0000000180009a00 f   UtilsGui:UtilsGui.dll
 0001:00008a06       ?isPointForNcRButtonMenuOk@TakionSettingPageBase@@UEBA_NIVCPoint@@@Z 0000000180009a06 f   UtilsGui:UtilsGui.dll
 0001:00008a0c       ?UpdateFrameBottom@TakionDialog@@UEAA_NXZ 0000000180009a0c f   UtilsGui:UtilsGui.dll
 0001:00008a12       ?UpdateFrameRight@TakionDialog@@UEAA_NXZ 0000000180009a12 f   UtilsGui:UtilsGui.dll
 0001:00008a18       ?HasActiveRectMenu@TakionDialog@@UEBA_NPEBVActiveRect@@@Z 0000000180009a18 f   UtilsGui:UtilsGui.dll
 0001:00008a1e       ?isTooltipConfigValid@TakionSettingDialog@@MEBA_NXZ 0000000180009a1e f   UtilsGui:UtilsGui.dll
 0001:00008a24       ?isToolTipsEnabledAdditional@TakionSettingDialog@@MEBA_NXZ 0000000180009a24 f   UtilsGui:UtilsGui.dll
 0001:00008a2a       ?isToolTipsEnabled@TakionSettingDialog@@MEBA_NXZ 0000000180009a2a f   UtilsGui:UtilsGui.dll
 0001:00008a30       ?InitControls@TakionDialog@@MEAAXXZ 0000000180009a30 f   UtilsGui:UtilsGui.dll
 0001:00008a36       ?DisplayMenu@TakionSettingPageBase@@MEAAXAEBVCPoint@@@Z 0000000180009a36 f   UtilsGui:UtilsGui.dll
 0001:00008a3c       ?PreAddMenuItems@TakionDialog@@MEAAXAEAVCMenu@@@Z 0000000180009a3c f   UtilsGui:UtilsGui.dll
 0001:00008a42       ?AddMenuItems@TakionDialog@@MEAAXAEAVCMenu@@@Z 0000000180009a42 f   UtilsGui:UtilsGui.dll
 0001:00008a48       ?PostAddMenuItems@TakionDialog@@MEAAXAEAVCMenu@@@Z 0000000180009a48 f   UtilsGui:UtilsGui.dll
 0001:00008a4e       ?DrawMenuItem@TakionDialog@@MEAAXPEAUtagDRAWITEMSTRUCT@@@Z 0000000180009a4e f   UtilsGui:UtilsGui.dll
 0001:00008a54       ?MeasureMenuItem@TakionDialog@@MEAA_NPEAUtagMEASUREITEMSTRUCT@@@Z 0000000180009a54 f   UtilsGui:UtilsGui.dll
 0001:00008a5a       ?DialogCancelled@TakionDialog@@MEAAXXZ 0000000180009a5a f   UtilsGui:UtilsGui.dll
 0001:00008a60       ?ResizeControlsInitialized@TakionDialog@@MEAAXXZ 0000000180009a60 f   UtilsGui:UtilsGui.dll
 0001:00008a66       ?OnResizeToFrame@TakionDialog@@MEAAXXZ 0000000180009a66 f   UtilsGui:UtilsGui.dll
 0001:00008a6c       ?isCloseOnEnter@TakionSettingDialog@@MEBA_NXZ 0000000180009a6c f   UtilsGui:UtilsGui.dll
 0001:00008a72       ?TitleScrolledHorizontally@TakionDialog@@MEAAXIAEBVCRect@@H@Z 0000000180009a72 f   UtilsGui:UtilsGui.dll
 0001:00008a78       ?TotalScrolledHorizontally@TakionDialog@@MEAAXIAEBVCRect@@H@Z 0000000180009a78 f   UtilsGui:UtilsGui.dll
 0001:00008a7e       ?PreWheel@TakionDialog@@MEAA_NIFVCPoint@@@Z 0000000180009a7e f   UtilsGui:UtilsGui.dll
 0001:00008a84       ?FinishDialog@TakionDialog@@MEAAXH@Z 0000000180009a84 f   UtilsGui:UtilsGui.dll
 0001:00008a8a       ?AfterClose@TakionDialog@@MEAAXXZ 0000000180009a8a f   UtilsGui:UtilsGui.dll
 0001:00008a90       ?MouseEntered@TakionDialog@@MEAAXXZ 0000000180009a90 f   UtilsGui:UtilsGui.dll
 0001:00008a96       ?MouseLeft@TakionDialog@@MEAAXXZ 0000000180009a96 f   UtilsGui:UtilsGui.dll
 0001:00008a9c       ?NcMouseEntered@TakionDialog@@MEAAXXZ 0000000180009a9c f   UtilsGui:UtilsGui.dll
 0001:00008aa2       ?NcMouseLeft@TakionDialog@@MEAAXXZ 0000000180009aa2 f   UtilsGui:UtilsGui.dll
 0001:00008aa8       ?DCCreated@TakionDialog@@MEAAXXZ 0000000180009aa8 f   UtilsGui:UtilsGui.dll
 0001:00008aae       ?LBDragEnter@TakionDialog@@MEAA_JAEAUDRAGDROPINFO@@IPEAVListBoxOwnerDraw@@@Z 0000000180009aae f   UtilsGui:UtilsGui.dll
 0001:00008ab4       ?LBItemDraggedAndDropped@TakionDialog@@MEAAXIGG@Z 0000000180009ab4 f   UtilsGui:UtilsGui.dll
 0001:00008aba       ?LBDragDropDone@TakionDialog@@MEAAXIHH@Z 0000000180009aba f   UtilsGui:UtilsGui.dll
 0001:00008ac0       ?LBDragDropAbort@TakionDialog@@MEAAXIH@Z 0000000180009ac0 f   UtilsGui:UtilsGui.dll
 0001:00008ac6       ?ItemDropped@TakionDialog@@MEAAHPEAUHWND__@@PEAVListBoxOwnerDraw@@IPEAXAEAH@Z 0000000180009ac6 f   UtilsGui:UtilsGui.dll
 0001:00008acc       ?ResizeMouseArea@TakionDialog@@MEAA_NAEBVCPoint@@@Z 0000000180009acc f   UtilsGui:UtilsGui.dll
 0001:00008ad2       ?UpdateResizeCursor@TakionDialog@@MEAAEAEBVCPoint@@_N@Z 0000000180009ad2 f   UtilsGui:UtilsGui.dll
 0001:00008ad8       ?DoActivate@TakionDialog@@MEAAXI_N@Z 0000000180009ad8 f   UtilsGui:UtilsGui.dll
 0001:00008ade       ?DoPaint@TakionDialog@@MEAAXAEBUtagRECT@@AEAVCDC@@@Z 0000000180009ade f   UtilsGui:UtilsGui.dll
 0001:00008ae4       ?DoAdditionalPaint@TakionDialog@@MEAAXAEBUtagRECT@@AEAVCDC@@@Z 0000000180009ae4 f   UtilsGui:UtilsGui.dll
 0001:00008aea       ?Resize@TakionDialog@@MEAAX_N0@Z 0000000180009aea f   UtilsGui:UtilsGui.dll
 0001:00008af0       ?AfterControlsResized@TakionDialog@@MEAAX_N0@Z 0000000180009af0 f   UtilsGui:UtilsGui.dll
 0001:00008af6       ?CreateToolTip@TakionDialog@@MEAA_NXZ 0000000180009af6 f   UtilsGui:UtilsGui.dll
 0001:00008afc       ?DestroyToolTip@TakionDialog@@MEAA_NXZ 0000000180009afc f   UtilsGui:UtilsGui.dll
 0001:00008b02       ?ToolTipsEnabled@TakionDialog@@MEAAX_N@Z 0000000180009b02 f   UtilsGui:UtilsGui.dll
 0001:00008b08       ?InitializeToolTips@TakionDialog@@MEAA_NXZ 0000000180009b08 f   UtilsGui:UtilsGui.dll
 0001:00008b0e       ?PropagateToolTipsEnabled@TakionDialog@@MEAA_N_N@Z 0000000180009b0e f   UtilsGui:UtilsGui.dll
 0001:00008b14       ?ActiveRectChanged@TakionDialog@@MEAAXXZ 0000000180009b14 f   UtilsGui:UtilsGui.dll
 0001:00008b1a       ?AddActiveRectMenuItems@TakionDialog@@MEAAXAEAVCMenu@@PEBVActiveRect@@@Z 0000000180009b1a f   UtilsGui:UtilsGui.dll
 0001:00008b20       ?DoDisplaySelection@TakionDialog@@MEAA_NAEBVCRect@@_N1@Z 0000000180009b20 f   UtilsGui:UtilsGui.dll
 0001:00008b26       ?NoActiveRectPressed@TakionDialog@@MEAA_NXZ 0000000180009b26 f   UtilsGui:UtilsGui.dll
 0001:00008b2c       ?OnMakeSelection@TakionDialog@@MEAAXXZ 0000000180009b2c f   UtilsGui:UtilsGui.dll
 0001:00008b32       ?isModified@TakionSettingDialog@@UEBA_NXZ 0000000180009b32 f   UtilsGui:UtilsGui.dll
 0001:00008b38       ?isForceApply@TakionSettingDialog@@UEBA_NXZ 0000000180009b38 f   UtilsGui:UtilsGui.dll
 0001:00008b3e       ?PrepareForSavingLayout@TakionSettingDialog@@UEAAXXZ 0000000180009b3e f   UtilsGui:UtilsGui.dll
 0001:00008b44       ?UpdateSettings@TakionSettingDialog@@UEAAXXZ 0000000180009b44 f   UtilsGui:UtilsGui.dll
 0001:00008b4a       ?UpdateControls@TakionSettingDialog@@UEAAXXZ 0000000180009b4a f   UtilsGui:UtilsGui.dll
 0001:00008b50       ?PostInitDialog@TakionSettingDialog@@UEAAXXZ 0000000180009b50 f   UtilsGui:UtilsGui.dll
 0001:00008b56       ?UpdateLeafControls@TakionSettingDialog@@UEAAXXZ 0000000180009b56 f   UtilsGui:UtilsGui.dll
 0001:00008b5c       ?isActiveTab@TakionSettingPageBase@@UEBA_NXZ 0000000180009b5c f   UtilsGui:UtilsGui.dll
 0001:00008b62       ?GetSettingDialogs@TakionSettingDialog@@UEAAPEAV?$vector@PEAVTakionSettingDialog@@V?$allocator@PEAVTakionSettingDialog@@@std@@@std@@XZ 0000000180009b62 f   UtilsGui:UtilsGui.dll
 0001:00008b68       ?isLeaf@TakionSettingPageBase@@UEBA_NXZ 0000000180009b68 f   UtilsGui:UtilsGui.dll
 0001:00008b6e       ?SetTabToOpen@TakionSettingDialog@@UEAA_NPEBDPEBX@Z 0000000180009b6e f   UtilsGui:UtilsGui.dll
 0001:00008b74       ?SetInitialTab@TakionSettingDialog@@UEAAXXZ 0000000180009b74 f   UtilsGui:UtilsGui.dll
 0001:00008b7a       ?GetLevel@TakionSettingPageBase@@UEBAIXZ 0000000180009b7a f   UtilsGui:UtilsGui.dll
 0001:00008b80       ?GetCurrentTab@TakionSettingDialog@@UEBAHXZ 0000000180009b80 f   UtilsGui:UtilsGui.dll
 0001:00008b86       ?GetMainTabDialog@TakionSettingDialog@@UEBAPEBVTakionSettingTabDialog@@XZ 0000000180009b86 f   UtilsGui:UtilsGui.dll
 0001:00008b8c       ?GetMainTabDialog@TakionSettingDialog@@UEAAPEAVTakionSettingTabDialog@@XZ 0000000180009b8c f   UtilsGui:UtilsGui.dll
 0001:00008b92       ?GetTopDialogWidth@TakionSettingDialog@@UEBAHXZ 0000000180009b92 f   UtilsGui:UtilsGui.dll
 0001:00008b98       ?GetTopDialogHeight@TakionSettingDialog@@UEBAHXZ 0000000180009b98 f   UtilsGui:UtilsGui.dll
 0001:00008b9e       ?RestoreLayout@TakionSettingDialog@@UEAAXXZ 0000000180009b9e f   UtilsGui:UtilsGui.dll
 0001:00008ba4       ?SameLayoutOnRestore@TakionSettingDialog@@UEAAXXZ 0000000180009ba4 f   UtilsGui:UtilsGui.dll
 0001:00008baa       ?GetOkButton@TakionSettingDialog@@UEAAAEAVCButton@@XZ 0000000180009baa f   UtilsGui:UtilsGui.dll
 0001:00008bb0       ?GetApplyButton@TakionSettingDialog@@UEAAAEAVCButton@@XZ 0000000180009bb0 f   UtilsGui:UtilsGui.dll
 0001:00008bb6       ?GetOnTopCheckBox@TakionSettingDialog@@UEAAAEAVCButton@@XZ 0000000180009bb6 f   UtilsGui:UtilsGui.dll
 0001:00008bbc       ?GetToolTipsCheckBox@TakionSettingDialog@@UEAAAEAVCButton@@XZ 0000000180009bbc f   UtilsGui:UtilsGui.dll
 0001:00008bc2       ?GetCancelButton@TakionSettingDialog@@UEAAAEAVCButton@@XZ 0000000180009bc2 f   UtilsGui:UtilsGui.dll
 0001:00008bc8       ?GetHelpButton@TakionSettingDialog@@UEAAAEAVCButton@@XZ 0000000180009bc8 f   UtilsGui:UtilsGui.dll
 0001:00008bce       ?EnableApplyButton@TakionSettingDialog@@UEAAX_N@Z 0000000180009bce f   UtilsGui:UtilsGui.dll
 0001:00008bd4       ?EnableOkButton@TakionSettingDialog@@UEAAX_N@Z 0000000180009bd4 f   UtilsGui:UtilsGui.dll
 0001:00008bda       ?isAlarm@TakionSettingPageBase@@UEBA_NXZ 0000000180009bda f   UtilsGui:UtilsGui.dll
 0001:00008be0       ?SetAlarm@TakionSettingPageBase@@UEAAX_NI@Z 0000000180009be0 f   UtilsGui:UtilsGui.dll
 0001:00008be6       ?OnPageCommand@TakionSettingDialog@@UEAA_NK@Z 0000000180009be6 f   UtilsGui:UtilsGui.dll
 0001:00008bec       ?AddPageMenuItems@TakionSettingDialog@@UEBAXAEAVCMenu@@AEBVCPoint@@@Z 0000000180009bec f   UtilsGui:UtilsGui.dll
 0001:00008bf2       ?DrawPageMenuItems@TakionSettingDialog@@UEBA_NPEBUtagDRAWITEMSTRUCT@@@Z 0000000180009bf2 f   UtilsGui:UtilsGui.dll
 0001:00008bf8       ?MeasurePageMenuItems@TakionSettingDialog@@UEBA_NPEAUtagMEASUREITEMSTRUCT@@@Z 0000000180009bf8 f   UtilsGui:UtilsGui.dll
 0001:00008bfe       ?SetupControls@TakionSettingDialog@@MEAAXXZ 0000000180009bfe f   UtilsGui:UtilsGui.dll
 0001:00008c04       ?NullifyInitInfo@TakionSettingDialog@@MEAAXXZ 0000000180009c04 f   UtilsGui:UtilsGui.dll
 0001:00008c0a       ?DoApplyInitInfo@TakionSettingDialog@@MEAAXXZ 0000000180009c0a f   UtilsGui:UtilsGui.dll
 0001:00008c10       ?DestroyInitInfo@TakionSettingDialog@@MEAAXPEBX@Z 0000000180009c10 f   UtilsGui:UtilsGui.dll
 0001:00008c16       ?SetActiveTab@TakionSettingPageBase@@MEAAX_N@Z 0000000180009c16 f   UtilsGui:UtilsGui.dll
 0001:00008c1c       ?SettingPageDestroyed@TakionSettingPageBase@@MEAAXXZ 0000000180009c1c f   UtilsGui:UtilsGui.dll
 0001:00008c22       ?isExecuteCommands@TakionDialogInterface@@UEBA_NXZ 0000000180009c22 f   UtilsGui:UtilsGui.dll
 0001:00008c28       ?isCloseOnCommandExecution@TakionDialogInterface@@UEBA_NXZ 0000000180009c28 f   UtilsGui:UtilsGui.dll
 0001:00008c2e       ?CloseDialog@TakionSettingDialog@@UEAAXXZ 0000000180009c2e f   UtilsGui:UtilsGui.dll
 0001:00008c34       ?AdjustFrameRect@TakionDialog@@UEAAXXZ 0000000180009c34 f   UtilsGui:UtilsGui.dll
 0001:00008c3a       ?OffsetFrameRectAndMove@TakionDialog@@UEAAXHH@Z 0000000180009c3a f   UtilsGui:UtilsGui.dll
 0001:00008c40       ?DragWindow@TakionDialog@@UEAAXHH@Z 0000000180009c40 f   UtilsGui:UtilsGui.dll
 0001:00008c46       ?SetFrameRect@TakionDialog@@UEAAXAEBVCRect@@@Z 0000000180009c46 f   UtilsGui:UtilsGui.dll
 0001:00008c4c       ?MoveToFrameRect@TakionDialog@@UEAAXXZ 0000000180009c4c f   UtilsGui:UtilsGui.dll
 0001:00008c52       ?UpdateSystemRects@TakionDialogInterface@@UEAAXXZ 0000000180009c52 f   UtilsGui:UtilsGui.dll
 0001:00008c58       ?GetInsideScreen@TakionDialogInterface@@UEBA_NAEAVCRect@@@Z 0000000180009c58 f   UtilsGui:UtilsGui.dll
 0001:00008c5e       ?OnMouseForcedReleaseCapture@TakionDialog@@UEAAXXZ 0000000180009c5e f   UtilsGui:UtilsGui.dll
 0001:00008c64       ?GetHwnd@TakionDialog@@UEBAPEAUHWND__@@XZ 0000000180009c64 f   UtilsGui:UtilsGui.dll
 0001:00008c6a       ?GetIniFileName@ConfigBase@@UEBAPEBDXZ 0000000180009c6a f   UtilsGui:UtilsGui.dll
 0001:00008c70       ?GetLogFileName@ConfigBase@@UEBAPEBDXZ 0000000180009c70 f   UtilsGui:UtilsGui.dll
 0001:00008c76       ?GetPosFileName@ConfigBase@@UEBAPEBDXZ 0000000180009c76 f   UtilsGui:UtilsGui.dll
 0001:00008c7c       ?isSettingNameToRead@ConfigBase@@UEBA_NIAEBV?$basic_string@DU?$char_traits@D@std@@V?$allocator@D@2@@std@@@Z 0000000180009c7c f   UtilsGui:UtilsGui.dll
 0001:00008c82       ?GetFlagCount@ConfigBase@@UEBAEXZ 0000000180009c82 f   UtilsGui:UtilsGui.dll
 0001:00008c88       ?AdjustOldVersion@ConfigBase@@MEAAXXZ 0000000180009c88 f   UtilsGui:UtilsGui.dll
 0001:00008c8e       ?PreReadSetting@ConfigBase@@MEAA_NPEAVSetting@@AEBV?$basic_string@DU?$char_traits@D@std@@V?$allocator@D@2@@std@@PEBD@Z 0000000180009c8e f   UtilsGui:UtilsGui.dll
 0001:00008c94       ?GetMessageMap@TakionMessageBox@@MEBAPEBUAFX_MSGMAP@@XZ 0000000180009c94 f   UtilsGui:UtilsGui.dll
 0001:00008c9a       ?DoDataExchange@TakionMessageBox@@MEAAXPEAVCDataExchange@@@Z 0000000180009c9a f   UtilsGui:UtilsGui.dll
 0001:00008ca0       ?PreTranslateMessage@TakionMessageBox@@MEAAHPEAUtagMSG@@@Z 0000000180009ca0 f   UtilsGui:UtilsGui.dll
 0001:00008ca6       ?OnInitDialog@TakionMessageBox@@MEAAHXZ 0000000180009ca6 f   UtilsGui:UtilsGui.dll
 0001:00008cac       ?OnOK@TakionMessageBox@@UEAAXXZ 0000000180009cac f   UtilsGui:UtilsGui.dll
 0001:00008cb2       ?OnCancel@TakionMessageBox@@UEAAXXZ 0000000180009cb2 f   UtilsGui:UtilsGui.dll
 0001:00008cb8       ?GetBkColor@ColoredDraggableDialog@@UEBAKXZ 0000000180009cb8 f   UtilsGui:UtilsGui.dll
 0001:00008cbe       ?GetBkBrush@ColoredDraggableDialog@@UEBAPEAVCBrush@@XZ 0000000180009cbe f   UtilsGui:UtilsGui.dll
 0001:00008cc4       ?GetCurrentLeaf@TakionDialog@@UEBAPEBVTakionSettingDialog@@XZ 0000000180009cc4 f   UtilsGui:UtilsGui.dll
 0001:00008cca       ?GetCurrentLeaf@TakionDialog@@UEAAPEAVTakionSettingDialog@@XZ 0000000180009cca f   UtilsGui:UtilsGui.dll
 0001:00008cd0       ?Apply@TakionDialog@@UEAAXXZ 0000000180009cd0 f   UtilsGui:UtilsGui.dll
 0001:00008cd6       ?isPointForRButtonMenuOk@TakionDialog@@UEBA_NIVCPoint@@@Z 0000000180009cd6 f   UtilsGui:UtilsGui.dll
 0001:00008cdc       ?isPointForNcRButtonMenuOk@TakionDialog@@UEBA_NIVCPoint@@@Z 0000000180009cdc f   UtilsGui:UtilsGui.dll
 0001:00008ce2       ?isTooltipConfigValid@TakionDialog@@UEBA_NXZ 0000000180009ce2 f   UtilsGui:UtilsGui.dll
 0001:00008ce8       ?isToolTipsEnabledAdditional@TakionDialog@@UEBA_NXZ 0000000180009ce8 f   UtilsGui:UtilsGui.dll
 0001:00008cee       ?isToolTipsEnabled@TakionDialog@@UEBA_NXZ 0000000180009cee f   UtilsGui:UtilsGui.dll
 0001:00008cf4       ?DisplayMenu@TakionDialog@@MEAAXAEBVCPoint@@@Z 0000000180009cf4 f   UtilsGui:UtilsGui.dll
 0001:00008cfa       ?isCloseOnEnter@TakionDialog@@MEBA_NXZ 0000000180009cfa f   UtilsGui:UtilsGui.dll
 0001:00008d00       ?BeforeDestroy@TakionMessageBox@@MEAAXXZ 0000000180009d00 f   UtilsGui:UtilsGui.dll
 0001:00008d06       ?AfterClose@ColoredDraggableDialog@@MEAAXXZ 0000000180009d06 f   UtilsGui:UtilsGui.dll
 0001:00008d0c       ?DoPaint@TakionMessageBox@@MEAAXAEBUtagRECT@@AEAVCDC@@@Z 0000000180009d0c f   UtilsGui:UtilsGui.dll
 0001:00008d12       ?Resize@TakionMessageBox@@MEAAX_N0@Z 0000000180009d12 f   UtilsGui:UtilsGui.dll
 0001:00008d18       ?SetBkColor@ColoredDraggableDialog@@UEAAXK@Z 0000000180009d18 f   UtilsGui:UtilsGui.dll
 0001:00008d1e       ?OnBlink@TakionMessageBox@@MEAAXXZ 0000000180009d1e f   UtilsGui:UtilsGui.dll
 0001:00008d24       ?UpdateColors@TakionMessageBox@@UEAAXXZ 0000000180009d24 f   UtilsGui:UtilsGui.dll
 0001:00008d2a       ?PrepareToDisplay@TakionMessageBox@@MEAA_JPEAVCWnd@@PEBDIKKKKKKI111@Z 0000000180009d2a f   UtilsGui:UtilsGui.dll
 0001:00008d30       ?FillControls@TakionMessageBox@@MEAAXXZ 0000000180009d30 f   UtilsGui:UtilsGui.dll
 0001:00008d36       ?CalculateSize@TakionMessageBox@@MEAAXXZ 0000000180009d36 f   UtilsGui:UtilsGui.dll
 0001:00008d3c       ?GetMessageMap@TakionPopupWnd@@MEBAPEBUAFX_MSGMAP@@XZ 0000000180009d3c f   UtilsGui:UtilsGui.dll
 0001:00008d42       ?PreCreateWindow@TakionPopupWnd@@MEAAHAEAUtagCREATESTRUCTA@@@Z 0000000180009d42 f   UtilsGui:UtilsGui.dll
 0001:00008d48       ?OnCommand@TakionFrame@@MEAAH_K_J@Z 0000000180009d48 f   UtilsGui:UtilsGui.dll
 0001:00008d4e       ?OnNotify@TakionBaseWnd@@MEAAH_K_JPEA_J@Z 0000000180009d4e f   UtilsGui:UtilsGui.dll
 0001:00008d54       ?PostNcDestroy@TakionFrame@@MEAAXXZ 0000000180009d54 f   UtilsGui:UtilsGui.dll
 0001:00008d5a       ?isChild@TakionBaseWnd@@UEBA_NXZ 0000000180009d5a f   UtilsGui:UtilsGui.dll
 0001:00008d60       ?GetToolId@TakionBaseWnd@@UEBAPEBDXZ 0000000180009d60 f   UtilsGui:UtilsGui.dll
 0001:00008d66       ?GetDefaultGraphicsId@TakionBaseWnd@@UEBA?AV?$basic_string@DU?$char_traits@D@std@@V?$allocator@D@2@@std@@XZ 0000000180009d66 f   UtilsGui:UtilsGui.dll
 0001:00008d6c       ?GetTakionInstanceHandle@TakionPopupWnd@@UEBAPEAUHINSTANCE__@@XZ 0000000180009d6c f   UtilsGui:UtilsGui.dll
 0001:00008d72       ?DrawMenuItem@TakionFrame@@MEAAXPEAUtagDRAWITEMSTRUCT@@@Z 0000000180009d72 f   UtilsGui:UtilsGui.dll
 0001:00008d78       ?MeasureMenuItem@TakionFrame@@MEAA_NPEAUtagMEASUREITEMSTRUCT@@@Z 0000000180009d78 f   UtilsGui:UtilsGui.dll
 0001:00008d7e       ?OnMouseForcedReleaseCapture@TakionFrame@@MEAAXXZ 0000000180009d7e f   UtilsGui:UtilsGui.dll
 0001:00008d84       ?NcMouseEntered@TakionBaseWnd@@MEAAXXZ 0000000180009d84 f   UtilsGui:UtilsGui.dll
 0001:00008d8a       ?NcMouseLeft@TakionBaseWnd@@MEAAXXZ 0000000180009d8a f   UtilsGui:UtilsGui.dll
 0001:00008d90       ?GetBkColor@TakionPopupWnd@@UEBAKXZ 0000000180009d90 f   UtilsGui:UtilsGui.dll
 0001:00008d96       ?GetTitleColorActive@TakionFrame@@UEBAKXZ 0000000180009d96 f   UtilsGui:UtilsGui.dll
 0001:00008d9c       ?GetTitleColorInactive@TakionFrame@@UEBAKXZ 0000000180009d9c f   UtilsGui:UtilsGui.dll
 0001:00008da2       ?GetTitleColorTextActive@TakionFrame@@UEBAKXZ 0000000180009da2 f   UtilsGui:UtilsGui.dll
 0001:00008da8       ?GetTitleColorTextInactive@TakionFrame@@UEBAKXZ 0000000180009da8 f   UtilsGui:UtilsGui.dll
 0001:00008dae       ?GetWindowName@TakionFrame@@UEBAPEBDXZ 0000000180009dae f   UtilsGui:UtilsGui.dll
 0001:00008db4       ?GetHelpUrl@TakionFrame@@UEBA?AV?$basic_string@DU?$char_traits@D@std@@V?$allocator@D@2@@std@@XZ 0000000180009db4 f   UtilsGui:UtilsGui.dll
 0001:00008dba       ?Help@TakionFrame@@UEAAXXZ 0000000180009dba f   UtilsGui:UtilsGui.dll
 0001:00008dc0       ?GetCurrentFontParams@TakionFrame@@UEBA_NAEAV?$basic_string@DU?$char_traits@D@std@@V?$allocator@D@2@@std@@AEAVFontDescription@@1AEA_NAEAI@Z 0000000180009dc0 f   UtilsGui:UtilsGui.dll
 0001:00008dc6       ?SetCustomFont@TakionFrame@@UEAAXAEBVFontDescription@@_NI@Z 0000000180009dc6 f   UtilsGui:UtilsGui.dll
 0001:00008dcc       ?SetCustomColors@TakionFrame@@UEAAXPEBVGraphics@@PEAVGraphicsColorCollection@@PEBKG_NAEBVFilterStringAsNumberArray@@@Z 0000000180009dcc f   UtilsGui:UtilsGui.dll
 0001:00008dd2       ?toString@TakionFrame@@UEBAXAEAV?$basic_string@DU?$char_traits@D@std@@V?$allocator@D@2@@std@@I@Z 0000000180009dd2 f   UtilsGui:UtilsGui.dll
 0001:00008dd8       ?fromString@TakionFrame@@UEAAXAEAPEBD_K_NI@Z 0000000180009dd8 f   UtilsGui:UtilsGui.dll
 0001:00008dde       ?fromScratch@TakionFrame@@UEAAXXZ 0000000180009dde f   UtilsGui:UtilsGui.dll
 0001:00008de4       ?CreateTakionWnd@TakionPopupWnd@@UEAA_NPEBVCRect@@_N@Z 0000000180009de4 f   UtilsGui:UtilsGui.dll
 0001:00008dea       ?GetSettingsTabPath@TakionFrame@@UEBAPEBDAEBVCPoint@@@Z 0000000180009dea f   UtilsGui:UtilsGui.dll
 0001:00008df0       ?GetSettingsTabInitInfo@TakionFrame@@UEBAPEBXAEBVCPoint@@@Z 0000000180009df0 f   UtilsGui:UtilsGui.dll
 0001:00008df6       ?GetGraphicsTabInitInfo@TakionFrame@@UEBAPEBXAEBVCPoint@@@Z 0000000180009df6 f   UtilsGui:UtilsGui.dll
 0001:00008dfc       ?SetTakionNamedFilter@TakionFrame@@UEAAXPEAVTakionFilter@@AEBV?$basic_string@DU?$char_traits@D@std@@V?$allocator@D@2@@std@@@Z 0000000180009dfc f   UtilsGui:UtilsGui.dll
 0001:00008e02       ?NullifyNamedFilter@TakionFrame@@UEAAXXZ 0000000180009e02 f   UtilsGui:UtilsGui.dll
 0001:00008e08       ?LeaveFilter@TakionFrame@@UEAAXXZ 0000000180009e08 f   UtilsGui:UtilsGui.dll
 0001:00008e0e       ?GetFilter@TakionFrame@@UEBAPEBVTakionFilter@@XZ 0000000180009e0e f   UtilsGui:UtilsGui.dll
 0001:00008e14       ?GetTakionNamedFilter@TakionFrame@@UEBAPEBVTakionFilter@@XZ 0000000180009e14 f   UtilsGui:UtilsGui.dll
 0001:00008e1a       ?SetCommandToolOrdinal@TakionFrame@@UEAAXI@Z 0000000180009e1a f   UtilsGui:UtilsGui.dll
 0001:00008e20       ?GetNormalRect@TakionFrame@@UEBAAEBVCRect@@XZ 0000000180009e20 f   UtilsGui:UtilsGui.dll
 0001:00008e26       ?UpdateSystemRects@TakionFrame@@UEAAXXZ 0000000180009e26 f   UtilsGui:UtilsGui.dll
 0001:00008e2c       ?AdjustFrameRect@TakionFrame@@UEAAXXZ 0000000180009e2c f   UtilsGui:UtilsGui.dll
 0001:00008e32       ?GetHitTest@TakionFrame@@UEBA_JAEBVCPoint@@@Z 0000000180009e32 f   UtilsGui:UtilsGui.dll
 0001:00008e38       ?GetInitialLeft@TakionFrame@@UEBAHXZ 0000000180009e38 f   UtilsGui:UtilsGui.dll
 0001:00008e3e       ?GetInitialTop@TakionFrame@@UEBAHXZ 0000000180009e3e f   UtilsGui:UtilsGui.dll
 0001:00008e44       ?GetInitialWidth@TakionFrame@@UEBAHXZ 0000000180009e44 f   UtilsGui:UtilsGui.dll
 0001:00008e4a       ?GetInitialHeight@TakionFrame@@UEBAHXZ 0000000180009e4a f   UtilsGui:UtilsGui.dll
 0001:00008e50       ?GetSysMenu@TakionFrame@@UEBAPEAVCMenu@@XZ 0000000180009e50 f   UtilsGui:UtilsGui.dll
 0001:00008e56       ?AcceptText@TakionFrame@@UEAAXPEBDI@Z 0000000180009e56 f   UtilsGui:UtilsGui.dll
 0001:00008e5c       ?AcceptPrice@TakionFrame@@UEAAXAEBVPrice@@I@Z 0000000180009e5c f   UtilsGui:UtilsGui.dll
 0001:00008e62       ?AcceptDate@TakionFrame@@UEAAXAEBII@Z 0000000180009e62 f   UtilsGui:UtilsGui.dll
 0001:00008e68       ?ProcessKeyDown@TakionFrame@@UEAA_NEE_NPEAV1@@Z 0000000180009e68 f   UtilsGui:UtilsGui.dll
 0001:00008e6e       ?ProcessKeyUp@TakionFrame@@UEAA_NEEPEAV1@@Z 0000000180009e6e f   UtilsGui:UtilsGui.dll
 0001:00008e74       ?GetScrollHorizontalOffset@TakionFrame@@UEBAHXZ 0000000180009e74 f   UtilsGui:UtilsGui.dll
 0001:00008e7a       ?GetScrollVerticalOffset@TakionFrame@@UEBAHXZ 0000000180009e7a f   UtilsGui:UtilsGui.dll
 0001:00008e80       ?ToggleMaximized@TakionFrame@@UEAA_NXZ 0000000180009e80 f   UtilsGui:UtilsGui.dll
 0001:00008e86       ?isRemoved@TakionFrame@@UEBA_NXZ 0000000180009e86 f   UtilsGui:UtilsGui.dll
 0001:00008e8c       ?isInRectForClientMenu@TakionFrame@@UEBA_NAEBVCPoint@@@Z 0000000180009e8c f   UtilsGui:UtilsGui.dll
 0001:00008e92       ?isTool@TakionFrame@@UEBA_NXZ 0000000180009e92 f   UtilsGui:UtilsGui.dll
 0001:00008e98       ?GetToolOrdinal@TakionFrame@@UEBAAEBIXZ 0000000180009e98 f   UtilsGui:UtilsGui.dll
 0001:00008e9e       ?isCommandTool@TakionFrame@@UEBA_NXZ 0000000180009e9e f   UtilsGui:UtilsGui.dll
 0001:00008ea4       ?GetCommandToolOrdinal@TakionFrame@@UEBAAEBIXZ 0000000180009ea4 f   UtilsGui:UtilsGui.dll
 0001:00008eaa       ?isHidden@TakionFrame@@UEBA_NXZ 0000000180009eaa f   UtilsGui:UtilsGui.dll
 0001:00008eb0       ?GetWorkspace@TakionFrame@@UEBAIXZ 0000000180009eb0 f   UtilsGui:UtilsGui.dll
 0001:00008eb6       ?GetLayer@TakionFrame@@UEBAIXZ 0000000180009eb6 f   UtilsGui:UtilsGui.dll
 0001:00008ebc       ?SetLocked@TakionFrame@@UEAAXAEB_N@Z 0000000180009ebc f   UtilsGui:UtilsGui.dll
 0001:00008ec2       ?CalculateLeft@TakionFrame@@UEBAHXZ 0000000180009ec2 f   UtilsGui:UtilsGui.dll
 0001:00008ec8       ?CalculateTop@TakionFrame@@UEBAHXZ 0000000180009ec8 f   UtilsGui:UtilsGui.dll
 0001:00008ece       ?CalculateRight@TakionFrame@@UEBAHXZ 0000000180009ece f   UtilsGui:UtilsGui.dll
 0001:00008ed4       ?CalculateBottom@TakionFrame@@UEBAHXZ 0000000180009ed4 f   UtilsGui:UtilsGui.dll
 0001:00008eda       ?GetLeft@TakionFrame@@UEBAHXZ 0000000180009eda f   UtilsGui:UtilsGui.dll
 0001:00008ee0       ?GetTop@TakionFrame@@UEBAHXZ 0000000180009ee0 f   UtilsGui:UtilsGui.dll
 0001:00008ee6       ?GetRight@TakionFrame@@UEBAHXZ 0000000180009ee6 f   UtilsGui:UtilsGui.dll
 0001:00008eec       ?GetBottom@TakionFrame@@UEBAHXZ 0000000180009eec f   UtilsGui:UtilsGui.dll
 0001:00008ef2       ?SetFrameRect@TakionFrame@@MEAAXAEBVCRect@@@Z 0000000180009ef2 f   UtilsGui:UtilsGui.dll
 0001:00008ef8       ?AfterCloning@TakionFrame@@MEAAXXZ 0000000180009ef8 f   UtilsGui:UtilsGui.dll
 0001:00008efe       ?AfterPasting@TakionFrame@@MEAAXXZ 0000000180009efe f   UtilsGui:UtilsGui.dll
 0001:00008f04       ?AddToToolCollection@TakionFrame@@MEAA_NXZ 0000000180009f04 f   UtilsGui:UtilsGui.dll
 0001:00008f0a       ?DoApplyFilter@TakionFrame@@MEAAXAEBVTakionFilter@@_N@Z 0000000180009f0a f   UtilsGui:UtilsGui.dll
 0001:00008f10       ?DisplayClientMenu@TakionFrame@@MEAAXIVCPoint@@@Z 0000000180009f10 f   UtilsGui:UtilsGui.dll
 0001:00008f16       ?OffsetFrameRectAndMove@TakionFrame@@MEAAXHH@Z 0000000180009f16 f   UtilsGui:UtilsGui.dll
 0001:00008f1c       ?PreAddMenuItems@TakionFrame@@MEAAXAEAVCMenu@@@Z 0000000180009f1c f   UtilsGui:UtilsGui.dll
 0001:00008f22       ?AddMenuItems@TakionFrame@@MEAAXAEAVCMenu@@@Z 0000000180009f22 f   UtilsGui:UtilsGui.dll
 0001:00008f28       ?PostAddMenuItems@TakionFrame@@MEAAXAEAVCMenu@@@Z 0000000180009f28 f   UtilsGui:UtilsGui.dll
 0001:00008f2e       ?OnSetBkColor@TakionFrame@@MEAAXXZ 0000000180009f2e f   UtilsGui:UtilsGui.dll
 0001:00008f34       ?ResizeMouseArea@TakionFrame@@MEAA_NAEBVCPoint@@_N@Z 0000000180009f34 f   UtilsGui:UtilsGui.dll
 0001:00008f3a       ?UpdateResizeCursor@TakionFrame@@MEAAEAEBVCPoint@@_N@Z 0000000180009f3a f   UtilsGui:UtilsGui.dll
 0001:00008f40       ?DCCreated@TakionFrame@@MEAAXXZ 0000000180009f40 f   UtilsGui:UtilsGui.dll
 0001:00008f46       ?DisplaySystemMenu@TakionFrame@@MEAAXAEBVCPoint@@@Z 0000000180009f46 f   UtilsGui:UtilsGui.dll
 0001:00008f4c       ?BeforeDestroy@TakionPopupWnd@@UEAAXXZ 0000000180009f4c f   UtilsGui:UtilsGui.dll
 0001:00008f52       ?AfterDestroy@TakionFrame@@MEAAXXZ 0000000180009f52 f   UtilsGui:UtilsGui.dll
 0001:00008f58       ?BeforeNcDestroy@TakionFrame@@MEAAXXZ 0000000180009f58 f   UtilsGui:UtilsGui.dll
 0001:00008f5e       ?DoActivate@TakionPopupWnd@@MEAAXI_N@Z 0000000180009f5e f   UtilsGui:UtilsGui.dll
 0001:00008f64       ?MouseEntered@TakionFrame@@MEAAXXZ 0000000180009f64 f   UtilsGui:UtilsGui.dll
 0001:00008f6a       ?MouseLeft@TakionFrame@@MEAAXXZ 0000000180009f6a f   UtilsGui:UtilsGui.dll
 0001:00008f70       ?MouseEnteredClientRect@TakionFrame@@MEAAXXZ 0000000180009f70 f   UtilsGui:UtilsGui.dll
 0001:00008f76       ?MouseLeftClientRect@TakionFrame@@MEAAXXZ 0000000180009f76 f   UtilsGui:UtilsGui.dll
 0001:00008f7c       ?ClientSetCursor@TakionFrame@@MEAA_NXZ 0000000180009f7c f   UtilsGui:UtilsGui.dll
 0001:00008f82       ?DoPaint@TakionPopupWnd@@MEAAXAEBUtagRECT@@AEAVCDC@@@Z 0000000180009f82 f   UtilsGui:UtilsGui.dll
 0001:00008f88       ?DoSize@TakionPopupWnd@@MEAAXIHHHH@Z 0000000180009f88 f   UtilsGui:UtilsGui.dll
 0001:00008f8e       ?CalculateWindowRect@TakionFrame@@MEAAXHHHH@Z 0000000180009f8e f   UtilsGui:UtilsGui.dll
 0001:00008f94       ?PreSuccessfulCreate@TakionFrame@@MEAAXXZ 0000000180009f94 f   UtilsGui:UtilsGui.dll
 0001:00008f9a       ?OnSuccessfulCreate@TakionPopupWnd@@MEAAXXZ 0000000180009f9a f   UtilsGui:UtilsGui.dll
 0001:00008fa0       ?DoMinimize@TakionFrame@@MEAAXI_J@Z 0000000180009fa0 f   UtilsGui:UtilsGui.dll
 0001:00008fa6       ?DoRestore@TakionFrame@@MEAAXI_J@Z 0000000180009fa6 f   UtilsGui:UtilsGui.dll
 0001:00008fac       ?RemoveFromVisibleTools@TakionFrame@@MEAA_NXZ 0000000180009fac f   UtilsGui:UtilsGui.dll
 0001:00008fb2       ?AddToVisibleTools@TakionFrame@@MEAAXXZ 0000000180009fb2 f   UtilsGui:UtilsGui.dll
 0001:00008fb8       ?OnTitleResize@TakionFrame@@MEAAXXZ 0000000180009fb8 f   UtilsGui:UtilsGui.dll
 0001:00008fbe       ?DelayedCreationDone@TakionFrame@@MEAAXXZ 0000000180009fbe f   UtilsGui:UtilsGui.dll
 0001:00008fc4       ?GetInsideScreen@TakionPopupWnd@@UEBA_NAEAVCRect@@@Z 0000000180009fc4 f   UtilsGui:UtilsGui.dll
 0001:00008fca       ?TitleFontChanged@TakionFrame@@MEAAXXZ 0000000180009fca f   UtilsGui:UtilsGui.dll
 0001:00008fd0       ?Renew@TakionPopupWnd@@UEAAXXZ 0000000180009fd0 f   UtilsGui:UtilsGui.dll
 0001:00008fd6       ?UpdateColors@TakionPopupWnd@@UEAAXXZ 0000000180009fd6 f   UtilsGui:UtilsGui.dll
 0001:00008fdc       ?OnBlink@TakionPopupWnd@@MEAAXXZ 0000000180009fdc f   UtilsGui:UtilsGui.dll
 0001:00008fe2       ?PrepareToDisplay@TakionPopupWnd@@MEAA_JPEAVCWnd@@PEBDIKKKKKKI111@Z 0000000180009fe2 f   UtilsGui:UtilsGui.dll
 0001:00008fe8       ?CalculateSize@TakionPopupWnd@@MEAAXXZ 0000000180009fe8 f   UtilsGui:UtilsGui.dll
 0001:00008fee       ?MoveFrameRectToInitialPos@TakionPopupWnd@@MEAAXXZ 0000000180009fee f   UtilsGui:UtilsGui.dll
 0001:00008ff4       ?GetMessageMap@TakionSettingTabDialog@@MEBAPEBUAFX_MSGMAP@@XZ 0000000180009ff4 f   UtilsGui:UtilsGui.dll
 0001:00008ffa       ?OnNotify@TakionSettingTabDialog@@MEAAH_K_JPEA_J@Z 0000000180009ffa f   UtilsGui:UtilsGui.dll
 0001:00009000       ?DoDataExchange@TakionSettingTabDialog@@MEAAXPEAVCDataExchange@@@Z 000000018000a000 f   UtilsGui:UtilsGui.dll
 0001:00009006       ?OnInitDialog@TakionSettingTabDialog@@MEAAHXZ 000000018000a006 f   UtilsGui:UtilsGui.dll
 0001:0000900c       ?GetCurrentLeaf@TakionSettingTabDialog@@UEBAPEBVTakionSettingDialog@@XZ 000000018000a00c f   UtilsGui:UtilsGui.dll
 0001:00009012       ?GetCurrentLeaf@TakionSettingTabDialog@@UEAAPEAVTakionSettingDialog@@XZ 000000018000a012 f   UtilsGui:UtilsGui.dll
 0001:00009018       ?GetFirstTabControl@TakionSettingTabDialog@@UEBAPEAUHWND__@@XZ 000000018000a018 f   UtilsGui:UtilsGui.dll
 0001:0000901e       ?Entering@TakionSettingTabDialog@@MEAAXXZ 000000018000a01e f   UtilsGui:UtilsGui.dll
 0001:00009024       ?Leaving@TakionSettingTabDialog@@MEAAXXZ 000000018000a024 f   UtilsGui:UtilsGui.dll
 0001:0000902a       ?FinishDialog@TakionSettingTabDialog@@MEAAXH@Z 000000018000a02a f   UtilsGui:UtilsGui.dll
 0001:00009030       ?Resize@TakionSettingTabDialog@@MEAAX_N0@Z 000000018000a030 f   UtilsGui:UtilsGui.dll
 0001:00009036       ?PropagateToolTipsEnabled@TakionSettingTabDialog@@MEAA_N_N@Z 000000018000a036 f   UtilsGui:UtilsGui.dll
 0001:0000903c       ?PrepareForSavingLayout@TakionSettingTabDialog@@UEAAXXZ 000000018000a03c f   UtilsGui:UtilsGui.dll
 0001:00009042       ?UpdateSettings@TakionSettingTabDialog@@UEAAXXZ 000000018000a042 f   UtilsGui:UtilsGui.dll
 0001:00009048       ?UpdateControls@TakionSettingTabDialog@@UEAAXXZ 000000018000a048 f   UtilsGui:UtilsGui.dll
 0001:0000904e       ?UpdateLeafControls@TakionSettingTabDialog@@UEAAXXZ 000000018000a04e f   UtilsGui:UtilsGui.dll
 0001:00009054       ?isActiveTab@TakionSettingDialog@@UEBA_NXZ 000000018000a054 f   UtilsGui:UtilsGui.dll
 0001:0000905a       ?GetSettingDialogs@TakionSettingTabDialog@@UEAAPEAV?$vector@PEAVTakionSettingDialog@@V?$allocator@PEAVTakionSettingDialog@@@std@@@std@@XZ 000000018000a05a f   UtilsGui:UtilsGui.dll
 0001:00009060       ?isLeaf@TakionSettingDialog@@UEBA_NXZ 000000018000a060 f   UtilsGui:UtilsGui.dll
 0001:00009066       ?SetTabToOpen@TakionSettingTabDialog@@UEAA_NPEBDPEBX@Z 000000018000a066 f   UtilsGui:UtilsGui.dll
 0001:0000906c       ?SetInitialTab@TakionSettingTabDialog@@UEAAXXZ 000000018000a06c f   UtilsGui:UtilsGui.dll
 0001:00009072       ?GetLevel@TakionSettingTabDialog@@UEBAIXZ 000000018000a072 f   UtilsGui:UtilsGui.dll
 0001:00009078       ?GetCurrentTab@TakionSettingTabDialog@@UEBAHXZ 000000018000a078 f   UtilsGui:UtilsGui.dll
 0001:0000907e       ?GetMainTabDialog@TakionSettingTabDialog@@UEBAPEBV1@XZ 000000018000a07e f   UtilsGui:UtilsGui.dll
 0001:00009084       ?GetMainTabDialog@TakionSettingTabDialog@@UEAAPEAV1@XZ 000000018000a084 f   UtilsGui:UtilsGui.dll
 0001:0000908a       ?GetTopDialogWidth@TakionSettingTabDialog@@UEBAHXZ 000000018000a08a f   UtilsGui:UtilsGui.dll
 0001:00009090       ?GetTopDialogHeight@TakionSettingTabDialog@@UEBAHXZ 000000018000a090 f   UtilsGui:UtilsGui.dll
 0001:00009096       ?RestoreLayout@TakionSettingTabDialog@@UEAAXXZ 000000018000a096 f   UtilsGui:UtilsGui.dll
 0001:0000909c       ?SameLayoutOnRestore@TakionSettingTabDialog@@UEAAXXZ 000000018000a09c f   UtilsGui:UtilsGui.dll
 0001:000090a2       ?isAlarm@TakionSettingTabDialog@@UEBA_NXZ 000000018000a0a2 f   UtilsGui:UtilsGui.dll
 0001:000090a8       ?SetAlarm@TakionSettingTabDialog@@UEAAX_NI@Z 000000018000a0a8 f   UtilsGui:UtilsGui.dll
 0001:000090ae       ?NullifyInitInfo@TakionSettingTabDialog@@MEAAXXZ 000000018000a0ae f   UtilsGui:UtilsGui.dll
 0001:000090b4       ?DoApplyInitInfo@TakionSettingTabDialog@@MEAAXXZ 000000018000a0b4 f   UtilsGui:UtilsGui.dll
 0001:000090ba       ?SetActiveTab@TakionSettingTabDialog@@MEAAX_N@Z 000000018000a0ba f   UtilsGui:UtilsGui.dll
 0001:000090c0       ?GetRightMargin@TakionSettingTabDialog@@UEBAHXZ 000000018000a0c0 f   UtilsGui:UtilsGui.dll
 0001:000090c6       ?TabNcDoubleClicked@TakionSettingTabDialog@@UEAAXXZ 000000018000a0c6 f   UtilsGui:UtilsGui.dll
 0001:000090cc       ?isExtensionMainDialog@TakionSettingTabDialog@@UEBA_NXZ 000000018000a0cc f   UtilsGui:UtilsGui.dll
 0001:000090d2       ?isLeafRButtonMenuOk@TakionSettingTabDialog@@UEBA_NXZ 000000018000a0d2 f   UtilsGui:UtilsGui.dll
 0001:000090d8       ?isLeafNcRButtonMenuOk@TakionSettingTabDialog@@UEBA_NXZ 000000018000a0d8 f   UtilsGui:UtilsGui.dll
 0001:000090de       ?DisplayPageMenu@TakionSettingTabDialog@@MEAAXPEAVTakionSettingPageBase@@AEBVCPoint@@@Z 000000018000a0de f   UtilsGui:UtilsGui.dll
 0001:000090e4       ?SettingTabDestroyed@TakionSettingTabDialog@@MEAAXXZ 000000018000a0e4 f   UtilsGui:UtilsGui.dll
 0001:000090ea       ?GetMessageMap@ExtensionMainDialogBase@@MEBAPEBUAFX_MSGMAP@@XZ 000000018000a0ea f   UtilsGui:UtilsGui.dll
 0001:000090f0       ?DoDataExchange@ExtensionMainDialogBase@@MEAAXPEAVCDataExchange@@@Z 000000018000a0f0 f   UtilsGui:UtilsGui.dll
 0001:000090f6       ?Apply@TakionSettingTopDialog@@UEAAXXZ 000000018000a0f6 f   UtilsGui:UtilsGui.dll
 0001:000090fc       ?isTooltipConfigValid@ExtensionMainDialogBase@@UEBA_NXZ 000000018000a0fc f   UtilsGui:UtilsGui.dll
 0001:00009102       ?isToolTipsEnabledAdditional@ExtensionMainDialogBase@@UEBA_NXZ 000000018000a102 f   UtilsGui:UtilsGui.dll
 0001:00009108       ?isToolTipsEnabled@ExtensionMainDialogBase@@UEBA_NXZ 000000018000a108 f   UtilsGui:UtilsGui.dll
 0001:0000910e       ?isCloseOnEnter@TakionSettingTopDialog@@MEBA_NXZ 000000018000a10e f   UtilsGui:UtilsGui.dll
 0001:00009114       ?FinishDialog@ExtensionMainDialogBase@@MEAAXH@Z 000000018000a114 f   UtilsGui:UtilsGui.dll
 0001:0000911a       ?DoActivate@ExtensionMainDialogBase@@MEAAXI_N@Z 000000018000a11a f   UtilsGui:UtilsGui.dll
 0001:00009120       ?DoPaint@TakionSettingTopDialog@@MEAAXAEBUtagRECT@@AEAVCDC@@@Z 000000018000a120 f   UtilsGui:UtilsGui.dll
 0001:00009126       ?Resize@TakionSettingTopDialog@@MEAAX_N0@Z 000000018000a126 f   UtilsGui:UtilsGui.dll
 0001:0000912c       ?GetMainTabDialog@TakionSettingTopDialog@@UEBAPEBVTakionSettingTabDialog@@XZ 000000018000a12c f   UtilsGui:UtilsGui.dll
 0001:00009132       ?GetMainTabDialog@TakionSettingTopDialog@@UEAAPEAVTakionSettingTabDialog@@XZ 000000018000a132 f   UtilsGui:UtilsGui.dll
 0001:00009138       ?GetTopDialogWidth@TakionSettingTopDialog@@UEBAHXZ 000000018000a138 f   UtilsGui:UtilsGui.dll
 0001:0000913e       ?GetTopDialogHeight@TakionSettingTopDialog@@UEBAHXZ 000000018000a13e f   UtilsGui:UtilsGui.dll
 0001:00009144       ?GetOkButton@TakionSettingTopDialog@@UEAAAEAVCButton@@XZ 000000018000a144 f   UtilsGui:UtilsGui.dll
 0001:0000914a       ?GetApplyButton@TakionSettingTopDialog@@UEAAAEAVCButton@@XZ 000000018000a14a f   UtilsGui:UtilsGui.dll
 0001:00009150       ?GetOnTopCheckBox@TakionSettingTopDialog@@UEAAAEAVCButton@@XZ 000000018000a150 f   UtilsGui:UtilsGui.dll
 0001:00009156       ?GetToolTipsCheckBox@TakionSettingTopDialog@@UEAAAEAVCButton@@XZ 000000018000a156 f   UtilsGui:UtilsGui.dll
 0001:0000915c       ?GetCancelButton@TakionSettingTopDialog@@UEAAAEAVCButton@@XZ 000000018000a15c f   UtilsGui:UtilsGui.dll
 0001:00009162       ?GetHelpButton@TakionSettingTopDialog@@UEAAAEAVCButton@@XZ 000000018000a162 f   UtilsGui:UtilsGui.dll
 0001:00009168       ?EnableApplyButton@TakionSettingTopDialog@@UEAAX_N@Z 000000018000a168 f   UtilsGui:UtilsGui.dll
 0001:0000916e       ?EnableOkButton@TakionSettingTopDialog@@UEAAX_N@Z 000000018000a16e f   UtilsGui:UtilsGui.dll
 0001:00009174       ?SetAlarm@TakionSettingTopDialog@@UEAAX_NI@Z 000000018000a174 f   UtilsGui:UtilsGui.dll
 0001:0000917a       ?GetRightMargin@TakionSettingTopDialog@@UEBAHXZ 000000018000a17a f   UtilsGui:UtilsGui.dll
 0001:00009180       ?isExtensionMainDialog@ExtensionMainDialogBase@@UEBA_NXZ 000000018000a180 f   UtilsGui:UtilsGui.dll
 0001:00009186       ?isInitializedFromFile@ExtensionMainDialogBase@@UEBA_NXZ 000000018000a186 f   UtilsGui:UtilsGui.dll
 0001:0000918c       ?GetPosRect@ExtensionMainDialogBase@@UEAAXAEAVCRect@@@Z 000000018000a18c f   UtilsGui:UtilsGui.dll
 0001:00009192       ?ExtractIsAlwaysOnTop@ExtensionMainDialogBase@@UEBA_NXZ 000000018000a192 f   UtilsGui:UtilsGui.dll
 0001:00009198       ?ExtractIsShowToolTips@ExtensionMainDialogBase@@UEBA_NXZ 000000018000a198 f   UtilsGui:UtilsGui.dll
 0001:0000919e       ?SaveAlwaysOnTop@ExtensionMainDialogBase@@MEAAX_N@Z 000000018000a19e f   UtilsGui:UtilsGui.dll
 0001:000091a4       ?SaveShowToolTips@ExtensionMainDialogBase@@MEAAX_N@Z 000000018000a1a4 f   UtilsGui:UtilsGui.dll
 0001:000091aa       ?PlaceButtons@ExtensionMainDialogBase@@MEAA_NXZ 000000018000a1aa f   UtilsGui:UtilsGui.dll
 0001:000091b0       ?GetExtensionFilePathAndName@ExtensionMainDialogBase@@UEBAPEBDXZ 000000018000a1b0 f   UtilsGui:UtilsGui.dll
 0001:000091b6       ?OnMouseForcedReleaseCapture@TakionSettingTabDialog@@UEAAXXZ 000000018000a1b6 f   UtilsGui:UtilsGui.dll
 0001:000091bc       ?PreTranslateMessage@ExtensionMainDialog@@MEAAHPEAUtagMSG@@@Z 000000018000a1bc f   TakionGui:TakionGui.dll
 0001:000091c2       ?OnOK@ExtensionMainDialog@@MEAAXXZ 000000018000a1c2 f   TakionGui:TakionGui.dll
 0001:000091c8       ?TabNcDoubleClicked@ExtensionMainDialog@@UEAAXXZ 000000018000a1c8 f   TakionGui:TakionGui.dll
 0001:000091ce       ??3@YAXPEAX@Z              000000018000a1ce f   mfc140:mfc140.dll
 0001:000091d4       ??2@YAPEAX_K@Z             000000018000a1d4 f   mfc140:mfc140.dll
 0001:000091da       ?DrawItem@CButton@@UEAAXPEAUtagDRAWITEMSTRUCT@@@Z 000000018000a1da f   mfc140:mfc140.dll
 0001:000091e0       ?Create@CButton@@UEAAHPEBDKAEBUtagRECT@@PEAVCWnd@@I@Z 000000018000a1e0 f   mfc140:mfc140.dll
 0001:000091e6       ?GetOccDialogInfo@CWnd@@MEAAPEAU_AFX_OCC_DIALOG_INFO@@XZ 000000018000a1e6 f   mfc140:mfc140.dll
 0001:000091ec       ?SetOccDialogInfo@CWnd@@MEAAHPEAU_AFX_OCC_DIALOG_INFO@@@Z 000000018000a1ec f   mfc140:mfc140.dll
 0001:000091f2       ?CreateControlSite@CWnd@@MEAAHPEAVCOleControlContainer@@PEAPEAVCOleControlSite@@IAEBU_GUID@@@Z 000000018000a1f2 f   mfc140:mfc140.dll
 0001:000091f8       ?CreateControlContainer@CWnd@@MEAAHPEAPEAVCOleControlContainer@@@Z 000000018000a1f8 f   mfc140:mfc140.dll
 0001:000091fe       ?IsFrameWnd@CWnd@@UEBAHXZ  000000018000a1fe f   mfc140:mfc140.dll
 0001:00009204       ?CheckAutoCenter@CWnd@@UEAAHXZ 000000018000a204 f   mfc140:mfc140.dll
 0001:0000920a       ?ResizeDynamicLayout@CWnd@@MEAAXXZ 000000018000a20a f   mfc140:mfc140.dll
 0001:00009210       ?OnGesturePressAndTap@CWnd@@MEAAHVCPoint@@J@Z 000000018000a210 f   mfc140:mfc140.dll
 0001:00009216       ?OnGestureTwoFingerTap@CWnd@@MEAAHVCPoint@@@Z 000000018000a216 f   mfc140:mfc140.dll
 0001:0000921c       ?OnGestureRotate@CWnd@@MEAAHVCPoint@@N@Z 000000018000a21c f   mfc140:mfc140.dll
 0001:00009222       ?OnGesturePan@CWnd@@MEAAHVCPoint@@0@Z 000000018000a222 f   mfc140:mfc140.dll
 0001:00009228       ?OnGestureZoom@CWnd@@MEAAHVCPoint@@J@Z 000000018000a228 f   mfc140:mfc140.dll
 0001:0000922e       ?GetGestureStatus@CWnd@@MEAAKVCPoint@@@Z 000000018000a22e f   mfc140:mfc140.dll
 0001:00009234       ?OnTouchInput@CWnd@@MEAAHVCPoint@@HHPEAUtagTOUCHINPUT@@@Z 000000018000a234 f   mfc140:mfc140.dll
 0001:0000923a       ?OnTouchInputs@CWnd@@MEAAHIPEAUtagTOUCHINPUT@@@Z 000000018000a23a f   mfc140:mfc140.dll
 0001:00009240       ?OnChildNotify@CButton@@MEAAHI_K_JPEA_J@Z 000000018000a240 f   mfc140:mfc140.dll
 0001:00009246       ?PostNcDestroy@CWnd@@MEAAXXZ 000000018000a246 f   mfc140:mfc140.dll
 0001:0000924c       ?DefWindowProcA@CWnd@@MEAA_JI_K_J@Z 000000018000a24c f   mfc140:mfc140.dll
 0001:00009252       ?OnWndMsg@CWnd@@MEAAHI_K_JPEA_J@Z 000000018000a252 f   mfc140:mfc140.dll
 0001:00009258       ?WindowProc@CWnd@@MEAA_JI_K_J@Z 000000018000a258 f   mfc140:mfc140.dll
 0001:0000925e       ?OnAmbientProperty@CWnd@@UEAAHPEAVCOleControlSite@@JPEAUtagVARIANT@@@Z 000000018000a25e f   mfc140:mfc140.dll
 0001:00009264       ?PreTranslateMessage@CWnd@@UEAAHPEAUtagMSG@@@Z 000000018000a264 f   mfc140:mfc140.dll
 0001:0000926a       ?GetSuperWndProcAddr@CWnd@@MEAAPEAP6A_JPEAUHWND__@@I_K_J@ZXZ 000000018000a26a f   mfc140:mfc140.dll
 0001:00009270       ?OnNotify@CWnd@@MEAAH_K_JPEA_J@Z 000000018000a270 f   mfc140:mfc140.dll
 0001:00009276       ?OnCommand@CWnd@@MEAAH_K_J@Z 000000018000a276 f   mfc140:mfc140.dll
 0001:0000927c       ?CreateAccessibleProxy@CWnd@@UEAAJ_K_JPEA_J@Z 000000018000a27c f   mfc140:mfc140.dll
 0001:00009282       ?SetProxy@CWnd@@UEAAJPEAUIAccessibleProxy@@@Z 000000018000a282 f   mfc140:mfc140.dll
 0001:00009288       ?put_accValue@CWnd@@UEAAJUtagVARIANT@@PEA_W@Z 000000018000a288 f   mfc140:mfc140.dll
 0001:0000928e       ?put_accName@CWnd@@UEAAJUtagVARIANT@@PEA_W@Z 000000018000a28e f   mfc140:mfc140.dll
 0001:00009294       ?accDoDefaultAction@CWnd@@UEAAJUtagVARIANT@@@Z 000000018000a294 f   mfc140:mfc140.dll
 0001:0000929a       ?accHitTest@CWnd@@UEAAJJJPEAUtagVARIANT@@@Z 000000018000a29a f   mfc140:mfc140.dll
 0001:000092a0       ?accNavigate@CWnd@@UEAAJJUtagVARIANT@@PEAU2@@Z 000000018000a2a0 f   mfc140:mfc140.dll
 0001:000092a6       ?accLocation@CWnd@@UEAAJPEAJ000UtagVARIANT@@@Z 000000018000a2a6 f   mfc140:mfc140.dll
 0001:000092ac       ?accSelect@CWnd@@UEAAJJUtagVARIANT@@@Z 000000018000a2ac f   mfc140:mfc140.dll
 0001:000092b2       ?get_accDefaultAction@CWnd@@UEAAJUtagVARIANT@@PEAPEA_W@Z 000000018000a2b2 f   mfc140:mfc140.dll
 0001:000092b8       ?get_accSelection@CWnd@@UEAAJPEAUtagVARIANT@@@Z 000000018000a2b8 f   mfc140:mfc140.dll
 0001:000092be       ?get_accFocus@CWnd@@UEAAJPEAUtagVARIANT@@@Z 000000018000a2be f   mfc140:mfc140.dll
 0001:000092c4       ?get_accKeyboardShortcut@CWnd@@UEAAJUtagVARIANT@@PEAPEA_W@Z 000000018000a2c4 f   mfc140:mfc140.dll
 0001:000092ca       ?get_accHelpTopic@CWnd@@UEAAJPEAPEA_WUtagVARIANT@@PEAJ@Z 000000018000a2ca f   mfc140:mfc140.dll
 0001:000092d0       ?get_accHelp@CWnd@@UEAAJUtagVARIANT@@PEAPEA_W@Z 000000018000a2d0 f   mfc140:mfc140.dll
 0001:000092d6       ?get_accState@CWnd@@UEAAJUtagVARIANT@@PEAU2@@Z 000000018000a2d6 f   mfc140:mfc140.dll
 0001:000092dc       ?get_accRole@CWnd@@UEAAJUtagVARIANT@@PEAU2@@Z 000000018000a2dc f   mfc140:mfc140.dll
 0001:000092e2       ?get_accDescription@CWnd@@UEAAJUtagVARIANT@@PEAPEA_W@Z 000000018000a2e2 f   mfc140:mfc140.dll
 0001:000092e8       ?get_accValue@CWnd@@UEAAJUtagVARIANT@@PEAPEA_W@Z 000000018000a2e8 f   mfc140:mfc140.dll
 0001:000092ee       ?get_accName@CWnd@@UEAAJUtagVARIANT@@PEAPEA_W@Z 000000018000a2ee f   mfc140:mfc140.dll
 0001:000092f4       ?get_accChild@CWnd@@UEAAJUtagVARIANT@@PEAPEAUIDispatch@@@Z 000000018000a2f4 f   mfc140:mfc140.dll
 0001:000092fa       ?get_accChildCount@CWnd@@UEAAJPEAJ@Z 000000018000a2fa f   mfc140:mfc140.dll
 0001:00009300       ?get_accParent@CWnd@@UEAAJPEAPEAUIDispatch@@@Z 000000018000a300 f   mfc140:mfc140.dll
 0001:00009306       ?EnsureStdObj@CWnd@@UEAAJXZ 000000018000a306 f   mfc140:mfc140.dll
 0001:0000930c       ?OnDrawIconicThumbnailOrLivePreview@CWnd@@UEAAXAEAVCDC@@VCRect@@VCSize@@HAEAH@Z 000000018000a30c f   mfc140:mfc140.dll
 0001:00009312       ?EndModalLoop@CWnd@@UEAAXH@Z 000000018000a312 f   mfc140:mfc140.dll
 0001:00009318       ?ContinueModal@CWnd@@UEAAHXZ 000000018000a318 f   mfc140:mfc140.dll
 0001:0000931e       ?WinHelpInternal@CWnd@@UEAAX_KI@Z 000000018000a31e f   mfc140:mfc140.dll
 0001:00009324       ?HtmlHelpA@CWnd@@UEAAX_KI@Z 000000018000a324 f   mfc140:mfc140.dll
 0001:0000932a       ?WinHelpA@CWnd@@UEAAX_KI@Z 000000018000a32a f   mfc140:mfc140.dll
 0001:00009330       ?GetScrollBarCtrl@CWnd@@UEBAPEAVCScrollBar@@H@Z 000000018000a330 f   mfc140:mfc140.dll
 0001:00009336       ?OnToolHitTest@CWnd@@UEBA_JVCPoint@@PEAUtagTOOLINFOA@@@Z 000000018000a336 f   mfc140:mfc140.dll
 0001:0000933c       ?SetMenu@CWnd@@UEAAHPEAVCMenu@@@Z 000000018000a33c f   mfc140:mfc140.dll
 0001:00009342       ?GetMenu@CWnd@@UEBAPEAVCMenu@@XZ 000000018000a342 f   mfc140:mfc140.dll
 0001:00009348       ?CalcWindowRect@CWnd@@UEAAXPEAUtagRECT@@I@Z 000000018000a348 f   mfc140:mfc140.dll
 0001:0000934e       ?PreCreateWindow@CWnd@@UEAAHAEAUtagCREATESTRUCTA@@@Z 000000018000a34e f   mfc140:mfc140.dll
 0001:00009354       ?DestroyWindow@CWnd@@UEAAHXZ 000000018000a354 f   mfc140:mfc140.dll
 0001:0000935a       ?CreateEx@CWnd@@UEAAHKPEBD0KHHHHPEAUHWND__@@PEAUHMENU__@@PEAX@Z 000000018000a35a f   mfc140:mfc140.dll
 0001:00009360       ?CreateEx@CWnd@@UEAAHKPEBD0KAEBUtagRECT@@PEAV1@IPEAX@Z 000000018000a360 f   mfc140:mfc140.dll
 0001:00009366       ?Create@CWnd@@UEAAHPEBD0KAEBUtagRECT@@PEAV1@IPEAUCCreateContext@@@Z 000000018000a366 f   mfc140:mfc140.dll
 0001:0000936c       ?PreSubclassWindow@CWnd@@UEAAXXZ 000000018000a36c f   mfc140:mfc140.dll
 0001:00009372       ?GetConnectionHook@CCmdTarget@@MEAAPEAUIConnectionPoint@@AEBU_GUID@@@Z 000000018000a372 f   mfc140:mfc140.dll
 0001:00009378       ?GetExtraConnectionPoints@CCmdTarget@@MEAAHPEAVCPtrArray@@@Z 000000018000a378 f   mfc140:mfc140.dll
 0001:0000937e       ?GetInterfaceHook@CCmdTarget@@UEAAPEAUIUnknown@@PEBX@Z 000000018000a37e f   mfc140:mfc140.dll
 0001:00009384       ?OnCreateAggregates@CCmdTarget@@UEAAHXZ 000000018000a384 f   mfc140:mfc140.dll
 0001:0000938a       ?GetEventSinkMap@CCmdTarget@@MEBAPEBUAFX_EVENTSINKMAP@@XZ 000000018000a38a f   mfc140:mfc140.dll
 0001:00009390       ?GetInterfaceMap@CWnd@@MEBAPEBUAFX_INTERFACEMAP@@XZ 000000018000a390 f   mfc140:mfc140.dll
 0001:00009396       ?GetConnectionMap@CCmdTarget@@MEBAPEBUAFX_CONNECTIONMAP@@XZ 000000018000a396 f   mfc140:mfc140.dll
 0001:0000939c       ?GetDispatchMap@CCmdTarget@@MEBAPEBUAFX_DISPMAP@@XZ 000000018000a39c f   mfc140:mfc140.dll
 0001:000093a2       ?GetCommandMap@CCmdTarget@@MEBAPEBUAFX_OLECMDMAP@@XZ 000000018000a3a2 f   mfc140:mfc140.dll
 0001:000093a8       ?GetMessageMap@CWnd@@MEBAPEBUAFX_MSGMAP@@XZ 000000018000a3a8 f   mfc140:mfc140.dll
 0001:000093ae       ?GetTypeLib@CCmdTarget@@UEAAJKPEAPEAUITypeLib@@@Z 000000018000a3ae f   mfc140:mfc140.dll
 0001:000093b4       ?GetTypeLibCache@CCmdTarget@@UEAAPEAVCTypeLibCache@@XZ 000000018000a3b4 f   mfc140:mfc140.dll
 0001:000093ba       ?GetTypeInfoCount@CCmdTarget@@UEAAIXZ 000000018000a3ba f   mfc140:mfc140.dll
 0001:000093c0       ?GetDispatchIID@CCmdTarget@@UEAAHPEAU_GUID@@@Z 000000018000a3c0 f   mfc140:mfc140.dll
 0001:000093c6       ?IsInvokeAllowed@CCmdTarget@@UEAAHJ@Z 000000018000a3c6 f   mfc140:mfc140.dll
 0001:000093cc       ?OnFinalRelease@CWnd@@UEAAXXZ 000000018000a3cc f   mfc140:mfc140.dll
 0001:000093d2       ?OnCmdMsg@CCmdTarget@@UEAAHIHPEAXPEAUAFX_CMDHANDLERINFO@@@Z 000000018000a3d2 f   mfc140:mfc140.dll
 0001:000093d8       ?GetRuntimeClass@CButton@@UEBAPEAUCRuntimeClass@@XZ 000000018000a3d8 f   mfc140:mfc140.dll
 0001:000093de       ?DrawItem@CStatic@@UEAAXPEAUtagDRAWITEMSTRUCT@@@Z 000000018000a3de f   mfc140:mfc140.dll
 0001:000093e4       ?Create@CStatic@@UEAAHPEBDKAEBUtagRECT@@PEAVCWnd@@I@Z 000000018000a3e4 f   mfc140:mfc140.dll
 0001:000093ea       ?OnChildNotify@CStatic@@MEAAHI_K_JPEA_J@Z 000000018000a3ea f   mfc140:mfc140.dll
 0001:000093f0       ?GetRuntimeClass@CStatic@@UEBAPEAUCRuntimeClass@@XZ 000000018000a3f0 f   mfc140:mfc140.dll
 0001:000093f6       ?GetRuntimeClass@CDialog@@UEBAPEAUCRuntimeClass@@XZ 000000018000a3f6 f   mfc140:mfc140.dll
 0001:000093fc       ?OnCmdMsg@CDialog@@UEAAHIHPEAXPEAUAFX_CMDHANDLERINFO@@@Z 000000018000a3fc f   mfc140:mfc140.dll
 0001:00009402       ?OnChildNotify@CWnd@@MEAAHI_K_JPEA_J@Z 000000018000a402 f   mfc140:mfc140.dll
 0001:00009408       ?CheckAutoCenter@CDialog@@UEAAHXZ 000000018000a408 f   mfc140:mfc140.dll
 0001:0000940e       ?SetOccDialogInfo@CDialog@@MEAAHPEAU_AFX_OCC_DIALOG_INFO@@@Z 000000018000a40e f   mfc140:mfc140.dll
 0001:00009414       ?GetOccDialogInfo@CDialog@@MEAAPEAU_AFX_OCC_DIALOG_INFO@@XZ 000000018000a414 f   mfc140:mfc140.dll
 0001:0000941a       ?Create@CDialog@@UEAAHPEBDPEAVCWnd@@@Z 000000018000a41a f   mfc140:mfc140.dll
 0001:00009420       ?CreateIndirect@CDialog@@UEAAHPEAXPEAVCWnd@@@Z 000000018000a420 f   mfc140:mfc140.dll
 0001:00009426       ?CreateIndirect@CDialog@@UEAAHPEBUDLGTEMPLATE@@PEAVCWnd@@PEAX@Z 000000018000a426 f   mfc140:mfc140.dll
 0001:0000942c       ?OnSetFont@CDialog@@UEAAXPEAVCFont@@@Z 000000018000a42c f   mfc140:mfc140.dll
 0001:00009432       ?PreInitDialog@CDialog@@MEAAXXZ 000000018000a432 f   mfc140:mfc140.dll
 0001:00009438       ?GetRuntimeClass@CWnd@@UEBAPEAUCRuntimeClass@@XZ 000000018000a438 f   mfc140:mfc140.dll
 0001:0000943e       ?GetRuntimeClass@CWinApp@@UEBAPEAUCRuntimeClass@@XZ 000000018000a43e f   mfc140:mfc140.dll
 0001:00009444       ?OnFinalRelease@CCmdTarget@@UEAAXXZ 000000018000a444 f   mfc140:mfc140.dll
 0001:0000944a       ?GetMessageMap@CWinApp@@MEBAPEBUAFX_MSGMAP@@XZ 000000018000a44a f   mfc140:mfc140.dll
 0001:00009450       ?GetInterfaceMap@CCmdTarget@@MEBAPEBUAFX_INTERFACEMAP@@XZ 000000018000a450 f   mfc140:mfc140.dll
 0001:00009456       ?Run@CWinApp@@UEAAHXZ      000000018000a456 f   mfc140:mfc140.dll
 0001:0000945c       ?PreTranslateMessage@CWinThread@@UEAAHPEAUtagMSG@@@Z 000000018000a45c f   mfc140:mfc140.dll
 0001:00009462       ?PumpMessage@CWinThread@@UEAAHXZ 000000018000a462 f   mfc140:mfc140.dll
 0001:00009468       ?OnIdle@CWinApp@@UEAAHJ@Z  000000018000a468 f   mfc140:mfc140.dll
 0001:0000946e       ?IsIdleMessage@CWinThread@@UEAAHPEAUtagMSG@@@Z 000000018000a46e f   mfc140:mfc140.dll
 0001:00009474       ?ProcessWndProcException@CWinApp@@UEAA_JPEAVCException@@PEBUtagMSG@@@Z 000000018000a474 f   mfc140:mfc140.dll
 0001:0000947a       ?ProcessMessageFilter@CWinThread@@UEAAHHPEAUtagMSG@@@Z 000000018000a47a f   mfc140:mfc140.dll
 0001:00009480       ?GetMainWnd@CWinThread@@UEAAPEAVCWnd@@XZ 000000018000a480 f   mfc140:mfc140.dll
 0001:00009486       ?Delete@CWinThread@@UEAAXXZ 000000018000a486 f   mfc140:mfc140.dll
 0001:0000948c       ?GetProfileIntA@CWinApp@@UEAAIPEBD0H@Z 000000018000a48c f   mfc140:mfc140.dll
 0001:00009492       ?WriteProfileInt@CWinApp@@UEAAHPEBD0H@Z 000000018000a492 f   mfc140:mfc140.dll
 0001:00009498       ?GetProfileStringA@CWinApp@@UEAA?AV?$CStringT@DV?$StrTraitMFC_DLL@DV?$ChTraitsCRT@D@ATL@@@@@ATL@@PEBD00@Z 000000018000a498 f   mfc140:mfc140.dll
 0001:0000949e       ?WriteProfileStringA@CWinApp@@UEAAHPEBD00@Z 000000018000a49e f   mfc140:mfc140.dll
 0001:000094a4       ?GetProfileBinary@CWinApp@@UEAAHPEBD0PEAPEAEPEAI@Z 000000018000a4a4 f   mfc140:mfc140.dll
 0001:000094aa       ?WriteProfileBinary@CWinApp@@UEAAHPEBD0PEAEI@Z 000000018000a4aa f   mfc140:mfc140.dll
 0001:000094b0       ?InitLibId@CWinApp@@UEAAXXZ 000000018000a4b0 f   mfc140:mfc140.dll
 0001:000094b6       ?Register@CWinApp@@UEAAHXZ 000000018000a4b6 f   mfc140:mfc140.dll
 0001:000094bc       ?Unregister@CWinApp@@UEAAHXZ 000000018000a4bc f   mfc140:mfc140.dll
 0001:000094c2       ?OpenDocumentFile@CWinApp@@UEAAPEAVCDocument@@PEBDH@Z 000000018000a4c2 f   mfc140:mfc140.dll
 0001:000094c8       ?OpenDocumentFile@CWinApp@@UEAAPEAVCDocument@@PEBD@Z 000000018000a4c8 f   mfc140:mfc140.dll
 0001:000094ce       ?AddToRecentFileList@CWinApp@@UEAAXPEBD@Z 000000018000a4ce f   mfc140:mfc140.dll
 0001:000094d4       ?InitApplication@CWinApp@@UEAAHXZ 000000018000a4d4 f   mfc140:mfc140.dll
 0001:000094da       ?SaveAllModified@CWinApp@@UEAAHXZ 000000018000a4da f   mfc140:mfc140.dll
 0001:000094e0       ?DoMessageBox@CWinApp@@UEAAHPEBDII@Z 000000018000a4e0 f   mfc140:mfc140.dll
 0001:000094e6       ?DoWaitCursor@CWinApp@@UEAAXH@Z 000000018000a4e6 f   mfc140:mfc140.dll
 0001:000094ec       ?OnDDECommand@CWinApp@@UEAAHPEAD@Z 000000018000a4ec f   mfc140:mfc140.dll
 0001:000094f2       ?WinHelpA@CWinApp@@UEAAX_KI@Z 000000018000a4f2 f   mfc140:mfc140.dll
 0001:000094f8       ?HtmlHelpA@CWinApp@@UEAAX_KI@Z 000000018000a4f8 f   mfc140:mfc140.dll
 0001:000094fe       ?WinHelpInternal@CWinApp@@UEAAX_KI@Z 000000018000a4fe f   mfc140:mfc140.dll
 0001:00009504       ?RegisterWithRestartManager@CWinApp@@UEAAJPEB_WKP6AKPEAX@Z1KK@Z 000000018000a504 f   mfc140:mfc140.dll
 0001:0000950a       ?RegisterWithRestartManager@CWinApp@@UEAAJHAEBV?$CStringT@DV?$StrTraitMFC_DLL@DV?$ChTraitsCRT@D@ATL@@@@@ATL@@@Z 000000018000a50a f   mfc140:mfc140.dll
 0001:00009510       ?ApplicationRecoveryCallback@CWinApp@@UEAAKPEAX@Z 000000018000a510 f   mfc140:mfc140.dll
 0001:00009516       ?GetDataRecoveryHandler@CWinApp@@UEAAPEAVCDataRecoveryHandler@@XZ 000000018000a516 f   mfc140:mfc140.dll
 0001:0000951c       ?IsTaskbarInteractionEnabled@CWinApp@@UEAAHXZ 000000018000a51c f   mfc140:mfc140.dll
 0001:00009522       ?RestartInstance@CWinApp@@UEAAHXZ 000000018000a522 f   mfc140:mfc140.dll
 0001:00009528       ?LoadAppLangResourceDLL@CWinApp@@UEAAPEAUHINSTANCE__@@XZ 000000018000a528 f   mfc140:mfc140.dll
 0001:0000952e       ?LoadSysPolicies@CWinApp@@UEAAHXZ 000000018000a52e f   mfc140:mfc140.dll
 0001:00009534       RawDllMain                 000000018000a534 f   mfcs140:dllmodul.obj
 0001:00009590       ??_E_AFX_DLL_MODULE_STATE@@UEAAPEAXI@Z 000000018000a590 f i mfcs140:dllmodul.obj
 0001:00009590       ??_G_AFX_DLL_MODULE_STATE@@UEAAPEAXI@Z 000000018000a590 f i mfcs140:dllmodul.obj
 0001:000095d4       ?AfxWndProcDllStatic@@YA_JPEAUHWND__@@I_K_J@Z 000000018000a5d4 f   mfcs140:dllmodul.obj
 0001:00009648       DllMain                    000000018000a648 f   mfcs140:dllmodul.obj
 0001:00009690       InternalDllMain            000000018000a690 f   mfcs140:dllmodul.obj
 0001:0000983c       ?AfxGetApp@@YAPEAVCWinApp@@XZ 000000018000a83c f i mfcs140:dllmodulx.obj
 0001:00009860       __security_check_cookie    000000018000a860 f   msvcrt:_amdsecgs_.obj
 0001:00009884       __scrt_acquire_startup_lock 000000018000a884 f   msvcrt:utility.obj
 0001:000098c0       __scrt_dllmain_after_initialize_c 000000018000a8c0 f   msvcrt:utility.obj
 0001:000098f4       __scrt_dllmain_before_initialize_c 000000018000a8f4 f   msvcrt:utility.obj
 0001:0000990c       __scrt_dllmain_crt_thread_attach 000000018000a90c f   msvcrt:utility.obj
 0001:00009934       __scrt_dllmain_crt_thread_detach 000000018000a934 f   msvcrt:utility.obj
 0001:0000994c       __scrt_dllmain_exception_filter 000000018000a94c f   msvcrt:utility.obj
 0001:000099b0       __scrt_dllmain_uninitialize_c 000000018000a9b0 f   msvcrt:utility.obj
 0001:000099e0       __scrt_dllmain_uninitialize_critical 000000018000a9e0 f   msvcrt:utility.obj
 0001:000099f4       __scrt_initialize_crt      000000018000a9f4 f   msvcrt:utility.obj
 0001:00009a40       __scrt_initialize_onexit_tables 000000018000aa40 f   msvcrt:utility.obj
 0001:00009b20       __scrt_is_nonwritable_in_current_image 000000018000ab20 f   msvcrt:utility.obj
 0001:00009bbc       __scrt_release_startup_lock 000000018000abbc f   msvcrt:utility.obj
 0001:00009be0       __scrt_uninitialize_crt    000000018000abe0 f   msvcrt:utility.obj
 0001:00009c0c       _onexit                    000000018000ac0c f   msvcrt:utility.obj
 0001:00009c5c       atexit                     000000018000ac5c f   msvcrt:utility.obj
 0001:00009c74       ??3@YAXPEAX_K@Z            000000018000ac74 f   msvcrt:delete_scalar_size.obj
 0001:00009c7c       ??_Gtype_info@@UEAAPEAXI@Z 000000018000ac7c f i msvcrt:std_type_info_static.obj
 0001:00009c7c       ??_Etype_info@@UEAAPEAXI@Z 000000018000ac7c f i msvcrt:std_type_info_static.obj
 0001:00009e1c       _Init_thread_footer        000000018000ae1c f   msvcrt:thread_safe_statics.obj
 0001:00009e7c       _Init_thread_header        000000018000ae7c f   msvcrt:thread_safe_statics.obj
 0001:00009ee4       _Init_thread_notify        000000018000aee4 f   msvcrt:thread_safe_statics.obj
 0001:00009f40       _Init_thread_wait          000000018000af40 f   msvcrt:thread_safe_statics.obj
 0001:0000a314       _DllMainCRTStartup         000000018000b314 f   msvcrt:dll_dllmain.obj
 0001:0000a354       _guard_check_icall         000000018000b354 f i msvcrt:checkcfg.obj
 0001:0000a35c       __raise_securityfailure    000000018000b35c f   msvcrt:gs_report.obj
 0001:0000a390       __report_gsfailure         000000018000b390 f   msvcrt:gs_report.obj
 0001:0000a4d8       __isa_available_init       000000018000b4d8 f   msvcrt:_cpu_disp_.obj
 0001:0000a694       __scrt_is_ucrt_dll_in_use  000000018000b694 f   msvcrt:ucrt_detection.obj
 0001:0000a6a0       __scrt_fastfail            000000018000b6a0 f   msvcrt:utility_desktop.obj
 0001:0000a7e8       __security_init_cookie     000000018000b7e8 f   msvcrt:gs_support.obj
 0001:0000a894       ?__scrt_initialize_type_info@@YAXXZ 000000018000b894 f   msvcrt:tncleanup.obj
 0001:0000a8a4       ?__scrt_uninitialize_type_info@@YAXXZ 000000018000b8a4 f   msvcrt:tncleanup.obj
 0001:0000a8b0       __local_stdio_scanf_options 000000018000b8b0 f i msvcrt:default_local_stdio_options.obj
 0001:0000a8b8       __scrt_initialize_default_local_stdio_options 000000018000b8b8 f   msvcrt:default_local_stdio_options.obj
 0001:0000a8d4       __scrt_get_dyn_tls_init_callback 000000018000b8d4 f   msvcrt:dyn_tls_init.obj
 0001:0000a8dc       _RTC_Initialize            000000018000b8dc f   msvcrt:_initsect_.obj
 0001:0000a928       _RTC_Terminate             000000018000b928 f   msvcrt:_initsect_.obj
 0001:0000a974       __GSHandlerCheck           000000018000b974 f   msvcrt:_gshandler_.obj
 0001:0000a994       __GSHandlerCheckCommon     000000018000b994 f   msvcrt:_gshandler_.obj
 0001:0000a9f0       IsProcessorFeaturePresent  000000018000b9f0 f   kernel32:KERNEL32.dll
 0001:0000a9f8       ??0CAtlBaseModule@ATL@@QEAA@XZ 000000018000b9f8 f   atls:atlbase.obj
 0001:0000aaa0       ??1CAtlBaseModule@ATL@@QEAA@XZ 000000018000baa0 f   atls:atlbase.obj
 0001:0000aad4       ??_G_Fac_node@std@@QEAAPEAXI@Z 000000018000bad4 f i msvcprt:locale0_implib.obj
 0001:0000ab60       ?_Facet_Register@std@@YAXPEAV_Facet_base@1@@Z 000000018000bb60 f   msvcprt:locale0_implib.obj
 0001:0000ab98       ?xsputn@?$basic_streambuf@DU?$char_traits@D@std@@@std@@MEAA_JPEBD_J@Z 000000018000bb98 f   msvcprt:MSVCP140.dll
 0001:0000ab9e       ?showmanyc@?$basic_streambuf@DU?$char_traits@D@std@@@std@@MEAA_JXZ 000000018000bb9e f   msvcprt:MSVCP140.dll
 0001:0000aba4       ?xsgetn@?$basic_streambuf@DU?$char_traits@D@std@@@std@@MEAA_JPEAD_J@Z 000000018000bba4 f   msvcprt:MSVCP140.dll
 0001:0000abaa       __CxxFrameHandler3         000000018000bbaa f   vcruntime:VCRUNTIME140.dll
 0001:0000abb0       __std_terminate            000000018000bbb0 f   vcruntime:VCRUNTIME140.dll
 0001:0000abb6       memset                     000000018000bbb6 f   vcruntime:VCRUNTIME140.dll
 0001:0000abbc       __C_specific_handler       000000018000bbbc f   vcruntime:VCRUNTIME140.dll
 0001:0000abc2       __vcrt_InitializeCriticalSectionEx 000000018000bbc2 f   vcruntime:VCRUNTIME140.dll
 0001:0000abc8       __std_type_info_destroy_list 000000018000bbc8 f   vcruntime:VCRUNTIME140.dll
 0001:0000abce       free                       000000018000bbce f   ucrt:api-ms-win-crt-heap-l1-1-0.dll
 0001:0000abd4       _seh_filter_dll            000000018000bbd4 f   ucrt:api-ms-win-crt-runtime-l1-1-0.dll
 0001:0000abda       _configure_narrow_argv     000000018000bbda f   ucrt:api-ms-win-crt-runtime-l1-1-0.dll
 0001:0000abe0       _initialize_narrow_environment 000000018000bbe0 f   ucrt:api-ms-win-crt-runtime-l1-1-0.dll
 0001:0000abe6       _initialize_onexit_table   000000018000bbe6 f   ucrt:api-ms-win-crt-runtime-l1-1-0.dll
 0001:0000abec       _register_onexit_function  000000018000bbec f   ucrt:api-ms-win-crt-runtime-l1-1-0.dll
 0001:0000abf2       _execute_onexit_table      000000018000bbf2 f   ucrt:api-ms-win-crt-runtime-l1-1-0.dll
 0001:0000abf8       _crt_atexit                000000018000bbf8 f   ucrt:api-ms-win-crt-runtime-l1-1-0.dll
 0001:0000abfe       _cexit                     000000018000bbfe f   ucrt:api-ms-win-crt-runtime-l1-1-0.dll
 0001:0000ac04       _initterm                  000000018000bc04 f   ucrt:api-ms-win-crt-runtime-l1-1-0.dll
 0001:0000ac0a       _initterm_e                000000018000bc0a f   ucrt:api-ms-win-crt-runtime-l1-1-0.dll
 0001:0000ac10       ?Delete@CException@@QEAAXXZ 000000018000bc10 f   mfc140:mfc140.dll
 0001:0000ac16       ??3CNoTrackObject@@SAXPEAX@Z 000000018000bc16 f   mfc140:mfc140.dll
 0001:0000ac1c       ??0AFX_MODULE_STATE@@QEAA@HP6A_JPEAUHWND__@@I_K_J@ZKH@Z 000000018000bc1c f   mfc140:mfc140.dll
 0001:0000ac22       ??1AFX_MODULE_STATE@@UEAA@XZ 000000018000bc22 f   mfc140:mfc140.dll
 0001:0000ac28       ?AfxSetModuleState@@YAPEAVAFX_MODULE_STATE@@PEAV1@@Z 000000018000bc28 f   mfc140:mfc140.dll
 0001:0000ac2e       ?AfxGetModuleState@@YAPEAVAFX_MODULE_STATE@@XZ 000000018000bc2e f   mfc140:mfc140.dll
 0001:0000ac34       ??0AFX_MAINTAIN_STATE2@@QEAA@PEAVAFX_MODULE_STATE@@@Z 000000018000bc34 f   mfc140:mfc140.dll
 0001:0000ac3a       ??1AFX_MAINTAIN_STATE2@@QEAA@XZ 000000018000bc3a f   mfc140:mfc140.dll
 0001:0000ac40       ?AfxWinInit@@YAHPEAUHINSTANCE__@@0PEADH@Z 000000018000bc40 f   mfc140:mfc140.dll
 0001:0000ac46       ?AfxWndProc@@YA_JPEAUHWND__@@I_K_J@Z 000000018000bc46 f   mfc140:mfc140.dll
 0001:0000ac4c       ?AfxTermThread@@YAXPEAUHINSTANCE__@@@Z 000000018000bc4c f   mfc140:mfc140.dll
 0001:0000ac52       ?AfxWinTerm@@YAXXZ         000000018000bc52 f   mfc140:mfc140.dll
 0001:0000ac58       ??0CDynLinkLibrary@@QEAA@AEAUAFX_EXTENSION_MODULE@@H@Z 000000018000bc58 f   mfc140:mfc140.dll
 0001:0000ac5e       ?AfxInitExtensionModule@@YAHAEAUAFX_EXTENSION_MODULE@@PEAUHINSTANCE__@@@Z 000000018000bc5e f   mfc140:mfc140.dll
 0001:0000ac64       ?AfxTermExtensionModule@@YAXAEAUAFX_EXTENSION_MODULE@@H@Z 000000018000bc64 f   mfc140:mfc140.dll
 0001:0000ac6a       ?AfxCoreInitModule@@YAXXZ  000000018000bc6a f   mfc140:mfc140.dll
 0001:0000ac70       ?AfxLockTempMaps@@YAXXZ    000000018000bc70 f   mfc140:mfc140.dll
 0001:0000ac76       ?AfxUnlockTempMaps@@YAHH@Z 000000018000bc76 f   mfc140:mfc140.dll
 0001:0000ac7c       _RawDllMainProxy           000000018000bc7c f   mfcs140:rawdllmainproxy.obj
 0001:0000ad84       __scrt_stub_for_acrt_thread_attach 000000018000bd84 f   msvcrt:ucrt_stubs.obj
 0001:0000ad84       __acrt_thread_attach       000000018000bd84 f   msvcrt:ucrt_stubs.obj
 0001:0000ad84       __scrt_stub_for_acrt_uninitialize_critical 000000018000bd84 f   msvcrt:ucrt_stubs.obj
 0001:0000ad84       __acrt_uninitialize        000000018000bd84 f   msvcrt:ucrt_stubs.obj
 0001:0000ad84       __scrt_stub_for_acrt_thread_detach 000000018000bd84 f   msvcrt:ucrt_stubs.obj
 0001:0000ad84       __vcrt_uninitialize_critical 000000018000bd84 f   msvcrt:ucrt_stubs.obj
 0001:0000ad84       __scrt_stub_for_acrt_initialize 000000018000bd84 f   msvcrt:ucrt_stubs.obj
 0001:0000ad84       __vcrt_uninitialize        000000018000bd84 f   msvcrt:ucrt_stubs.obj
 0001:0000ad84       __vcrt_thread_attach       000000018000bd84 f   msvcrt:ucrt_stubs.obj
 0001:0000ad84       __vcrt_thread_detach       000000018000bd84 f   msvcrt:ucrt_stubs.obj
 0001:0000ad84       __acrt_uninitialize_critical 000000018000bd84 f   msvcrt:ucrt_stubs.obj
 0001:0000ad84       __acrt_thread_detach       000000018000bd84 f   msvcrt:ucrt_stubs.obj
 0001:0000ad84       __vcrt_initialize          000000018000bd84 f   msvcrt:ucrt_stubs.obj
 0001:0000ad84       __acrt_initialize          000000018000bd84 f   msvcrt:ucrt_stubs.obj
 0001:0000ad84       __scrt_stub_for_acrt_uninitialize 000000018000bd84 f   msvcrt:ucrt_stubs.obj
 0001:0000ad88       __GSHandlerCheck_EH        000000018000bd88 f   msvcrt:gshandlereh.obj
 0001:0000ae08       _CxxThrowException         000000018000be08 f   vcruntime:VCRUNTIME140.dll
 0001:0000ae0e       memcmp                     000000018000be0e f   vcruntime:VCRUNTIME140.dll
 0001:0000ae14       memcpy                     000000018000be14 f   vcruntime:VCRUNTIME140.dll
 0001:0000ae30       _guard_dispatch_icall_nop  000000018000be30 f   msvcrt:_guard_dispatch_.obj
 0002:00000000       __imp_GetTickCount         000000018000d000     kernel32:KERNEL32.dll
 0002:00000008       __imp_OutputDebugStringW   000000018000d008     kernel32:KERNEL32.dll
 0002:00000010       __imp_InitializeSListHead  000000018000d010     kernel32:KERNEL32.dll
 0002:00000018       __imp_GetSystemTimeAsFileTime 000000018000d018     kernel32:KERNEL32.dll
 0002:00000020       __imp_GetCurrentThreadId   000000018000d020     kernel32:KERNEL32.dll
 0002:00000028       __imp_InitializeCriticalSectionEx 000000018000d028     kernel32:KERNEL32.dll
 0002:00000030       __imp_GetLastError         000000018000d030     kernel32:KERNEL32.dll
 0002:00000038       __imp_DeleteCriticalSection 000000018000d038     kernel32:KERNEL32.dll
 0002:00000040       __imp_LocalAlloc           000000018000d040     kernel32:KERNEL32.dll
 0002:00000048       __imp_LocalFree            000000018000d048     kernel32:KERNEL32.dll
 0002:00000050       __imp_CloseHandle          000000018000d050     kernel32:KERNEL32.dll
 0002:00000058       __imp_EnterCriticalSection 000000018000d058     kernel32:KERNEL32.dll
 0002:00000060       __imp_LeaveCriticalSection 000000018000d060     kernel32:KERNEL32.dll
 0002:00000068       __imp_SetEvent             000000018000d068     kernel32:KERNEL32.dll
 0002:00000070       __imp_ResetEvent           000000018000d070     kernel32:KERNEL32.dll
 0002:00000078       __imp_WaitForSingleObjectEx 000000018000d078     kernel32:KERNEL32.dll
 0002:00000080       __imp_CreateEventW         000000018000d080     kernel32:KERNEL32.dll
 0002:00000088       __imp_GetModuleHandleW     000000018000d088     kernel32:KERNEL32.dll
 0002:00000090       __imp_GetProcAddress       000000018000d090     kernel32:KERNEL32.dll
 0002:00000098       __imp_RtlCaptureContext    000000018000d098     kernel32:KERNEL32.dll
 0002:000000a0       __imp_RtlLookupFunctionEntry 000000018000d0a0     kernel32:KERNEL32.dll
 0002:000000a8       __imp_RtlVirtualUnwind     000000018000d0a8     kernel32:KERNEL32.dll
 0002:000000b0       __imp_UnhandledExceptionFilter 000000018000d0b0     kernel32:KERNEL32.dll
 0002:000000b8       __imp_SetUnhandledExceptionFilter 000000018000d0b8     kernel32:KERNEL32.dll
 0002:000000c0       __imp_GetCurrentProcess    000000018000d0c0     kernel32:KERNEL32.dll
 0002:000000c8       __imp_TerminateProcess     000000018000d0c8     kernel32:KERNEL32.dll
 0002:000000d0       __imp_IsProcessorFeaturePresent 000000018000d0d0     kernel32:KERNEL32.dll
 0002:000000d8       __imp_IsDebuggerPresent    000000018000d0d8     kernel32:KERNEL32.dll
 0002:000000e0       __imp_QueryPerformanceCounter 000000018000d0e0     kernel32:KERNEL32.dll
 0002:000000e8       __imp_GetCurrentProcessId  000000018000d0e8     kernel32:KERNEL32.dll
 0002:000000f0       \177KERNEL32_NULL_THUNK_DATA 000000018000d0f0     kernel32:KERNEL32.dll
 0002:000000f8       __imp_?sgetc@?$basic_streambuf@DU?$char_traits@D@std@@@std@@QEAAHXZ 000000018000d0f8     msvcprt:MSVCP140.dll
 0002:00000100       __imp_?flush@?$basic_ostream@DU?$char_traits@D@std@@@std@@QEAAAEAV12@XZ 000000018000d100     msvcprt:MSVCP140.dll
 0002:00000108       __imp_??6?$basic_ostream@DU?$char_traits@D@std@@@std@@QEAAAEAV01@P6AAEAV01@AEAV01@@Z@Z 000000018000d108     msvcprt:MSVCP140.dll
 0002:00000110       __imp_?out@?$codecvt@DDU_Mbstatet@@@std@@QEBAHAEAU_Mbstatet@@PEBD1AEAPEBDPEAD3AEAPEAD@Z 000000018000d110     msvcprt:MSVCP140.dll
 0002:00000118       __imp_?in@?$codecvt@DDU_Mbstatet@@@std@@QEBAHAEAU_Mbstatet@@PEBD1AEAPEBDPEAD3AEAPEAD@Z 000000018000d118     msvcprt:MSVCP140.dll
 0002:00000120       __imp_??1?$basic_ios@DU?$char_traits@D@std@@@std@@UEAA@XZ 000000018000d120     msvcprt:MSVCP140.dll
 0002:00000128       __imp_?_Xbad_alloc@std@@YAXXZ 000000018000d128     msvcprt:MSVCP140.dll
 0002:00000130       __imp_?_Xlength_error@std@@YAXPEBD@Z 000000018000d130     msvcprt:MSVCP140.dll
 0002:00000138       __imp_?_Xout_of_range@std@@YAXPEBD@Z 000000018000d138     msvcprt:MSVCP140.dll
 0002:00000140       __imp_??0?$basic_ostream@DU?$char_traits@D@std@@@std@@QEAA@PEAV?$basic_streambuf@DU?$char_traits@D@std@@@1@_N@Z 000000018000d140     msvcprt:MSVCP140.dll
 0002:00000148       __imp_??1?$basic_ostream@DU?$char_traits@D@std@@@std@@UEAA@XZ 000000018000d148     msvcprt:MSVCP140.dll
 0002:00000150       __imp_??1?$basic_istream@DU?$char_traits@D@std@@@std@@UEAA@XZ 000000018000d150     msvcprt:MSVCP140.dll
 0002:00000158       __imp_?_BADOFF@std@@3_JB   000000018000d158     msvcprt:MSVCP140.dll
 0002:00000160       __imp_??1?$basic_streambuf@DU?$char_traits@D@std@@@std@@UEAA@XZ 000000018000d160     msvcprt:MSVCP140.dll
 0002:00000168       __imp_?uncaught_exception@std@@YA_NXZ 000000018000d168     msvcprt:MSVCP140.dll
 0002:00000170       __imp_?always_noconv@codecvt_base@std@@QEBA_NXZ 000000018000d170     msvcprt:MSVCP140.dll
 0002:00000178       __imp_?_Fiopen@std@@YAPEAU_iobuf@@PEBDHH@Z 000000018000d178     msvcprt:MSVCP140.dll
 0002:00000180       __imp_??1_Lockit@std@@QEAA@XZ 000000018000d180     msvcprt:MSVCP140.dll
 0002:00000188       __imp_??0_Lockit@std@@QEAA@H@Z 000000018000d188     msvcprt:MSVCP140.dll
 0002:00000190       __imp_?_Getgloballocale@locale@std@@CAPEAV_Locimp@12@XZ 000000018000d190     msvcprt:MSVCP140.dll
 0002:00000198       __imp_??Bid@locale@std@@QEAA_KXZ 000000018000d198     msvcprt:MSVCP140.dll
 0002:000001a0       __imp_?sputc@?$basic_streambuf@DU?$char_traits@D@std@@@std@@QEAAHD@Z 000000018000d1a0     msvcprt:MSVCP140.dll
 0002:000001a8       __imp_?id@?$codecvt@DDU_Mbstatet@@@std@@2V0locale@2@A 000000018000d1a8     msvcprt:MSVCP140.dll
 0002:000001b0       __imp_?xsputn@?$basic_streambuf@DU?$char_traits@D@std@@@std@@MEAA_JPEBD_J@Z 000000018000d1b0     msvcprt:MSVCP140.dll
 0002:000001b8       __imp_?sbumpc@?$basic_streambuf@DU?$char_traits@D@std@@@std@@QEAAHXZ 000000018000d1b8     msvcprt:MSVCP140.dll
 0002:000001c0       __imp_?showmanyc@?$basic_streambuf@DU?$char_traits@D@std@@@std@@MEAA_JXZ 000000018000d1c0     msvcprt:MSVCP140.dll
 0002:000001c8       __imp_?xsgetn@?$basic_streambuf@DU?$char_traits@D@std@@@std@@MEAA_JPEAD_J@Z 000000018000d1c8     msvcprt:MSVCP140.dll
 0002:000001d0       __imp_?_Ipfx@?$basic_istream@DU?$char_traits@D@std@@@std@@QEAA_N_N@Z 000000018000d1d0     msvcprt:MSVCP140.dll
 0002:000001d8       __imp_?snextc@?$basic_streambuf@DU?$char_traits@D@std@@@std@@QEAAHXZ 000000018000d1d8     msvcprt:MSVCP140.dll
 0002:000001e0       __imp_?sputn@?$basic_streambuf@DU?$char_traits@D@std@@@std@@QEAA_JPEBD_J@Z 000000018000d1e0     msvcprt:MSVCP140.dll
 0002:000001e8       __imp_?put@?$basic_ostream@DU?$char_traits@D@std@@@std@@QEAAAEAV12@D@Z 000000018000d1e8     msvcprt:MSVCP140.dll
 0002:000001f0       __imp_?_Getcat@?$codecvt@DDU_Mbstatet@@@std@@SA_KPEAPEBVfacet@locale@2@PEBV42@@Z 000000018000d1f0     msvcprt:MSVCP140.dll
 0002:000001f8       __imp_?widen@?$basic_ios@DU?$char_traits@D@std@@@std@@QEBADD@Z 000000018000d1f8     msvcprt:MSVCP140.dll
 0002:00000200       __imp_?getloc@?$basic_streambuf@DU?$char_traits@D@std@@@std@@QEBA?AVlocale@2@XZ 000000018000d200     msvcprt:MSVCP140.dll
 0002:00000208       __imp_?clear@?$basic_ios@DU?$char_traits@D@std@@@std@@QEAAXH_N@Z 000000018000d208     msvcprt:MSVCP140.dll
 0002:00000210       __imp_??0?$basic_streambuf@DU?$char_traits@D@std@@@std@@IEAA@XZ 000000018000d210     msvcprt:MSVCP140.dll
 0002:00000218       __imp_?_Init@?$basic_streambuf@DU?$char_traits@D@std@@@std@@IEAAXXZ 000000018000d218     msvcprt:MSVCP140.dll
 0002:00000220       __imp_?_Osfx@?$basic_ostream@DU?$char_traits@D@std@@@std@@QEAAXXZ 000000018000d220     msvcprt:MSVCP140.dll
 0002:00000228       __imp_?unshift@?$codecvt@DDU_Mbstatet@@@std@@QEBAHAEAU_Mbstatet@@PEAD1AEAPEAD@Z 000000018000d228     msvcprt:MSVCP140.dll
 0002:00000230       __imp_?setstate@?$basic_ios@DU?$char_traits@D@std@@@std@@QEAAXH_N@Z 000000018000d230     msvcprt:MSVCP140.dll
 0002:00000238       __imp_??0?$basic_ios@DU?$char_traits@D@std@@@std@@IEAA@XZ 000000018000d238     msvcprt:MSVCP140.dll
 0002:00000240       __imp_??0?$basic_istream@DU?$char_traits@D@std@@@std@@QEAA@PEAV?$basic_streambuf@DU?$char_traits@D@std@@@1@_N@Z 000000018000d240     msvcprt:MSVCP140.dll
 0002:00000248       \177MSVCP140_NULL_THUNK_DATA 000000018000d248     msvcprt:MSVCP140.dll
 0002:00000250       __imp_?RemoveObserver@Observable@@QEBA_NPEAVObserver@@@Z 000000018000d250     Observer:Observer.dll
 0002:00000258       __imp_?AddObserver@Observable@@QEBA_NPEAVObserver@@@Z 000000018000d258     Observer:Observer.dll
 0002:00000260       __imp_O_GetModuleVersionNum 000000018000d260     Observer:Observer.dll
 0002:00000268       __imp_??1Observer@@UEAA@XZ 000000018000d268     Observer:Observer.dll
 0002:00000270       __imp_??0Observer@@IEAA@XZ 000000018000d270     Observer:Observer.dll
 0002:00000278       \177Observer_NULL_THUNK_DATA 000000018000d278     Observer:Observer.dll
 0002:00000280       __imp_TD_CreateAccountIterator 000000018000d280     TakionData:TakionData.dll
 0002:00000288       __imp_TD_GetNextAccount    000000018000d288     TakionData:TakionData.dll
 0002:00000290       __imp_TD_UnlockAccountStorage 000000018000d290     TakionData:TakionData.dll
 0002:00000298       __imp_TD_ObtainStock       000000018000d298     TakionData:TakionData.dll
 0002:000002a0       __imp_TD_ReleaseStock      000000018000d2a0     TakionData:TakionData.dll
 0002:000002a8       __imp_TD_FindSortableEquityWithNoIncrementUnsubscribe 000000018000d2a8     TakionData:TakionData.dll
 0002:000002b0       __imp_TD_GetDestinationArca 000000018000d2b0     TakionData:TakionData.dll
 0002:000002b8       __imp_TD_GetDefaultProActiveRoutingNumericName 000000018000d2b8     TakionData:TakionData.dll
 0002:000002c0       __imp_TD_GetDestinationQsmt 000000018000d2c0     TakionData:TakionData.dll
 0002:000002c8       __imp_TD_GetModuleVersionNum 000000018000d2c8     TakionData:TakionData.dll
 0002:000002d0       __imp_TD_LockAccountStorage 000000018000d2d0     TakionData:TakionData.dll
 0002:000002d8       \177TakionData_NULL_THUNK_DATA 000000018000d2d8     TakionData:TakionData.dll
 0002:000002e0       __imp_TGUI_GetModuleVersionNum 000000018000d2e0     TakionGui:TakionGui.dll
 0002:000002e8       __imp_TGUI_GetTakionMainWnd 000000018000d2e8     TakionGui:TakionGui.dll
 0002:000002f0       __imp_?PreTranslateMessage@ExtensionMainDialog@@MEAAHPEAUtagMSG@@@Z 000000018000d2f0     TakionGui:TakionGui.dll
 0002:000002f8       __imp_?OnOK@ExtensionMainDialog@@MEAAXXZ 000000018000d2f8     TakionGui:TakionGui.dll
 0002:00000300       __imp_?TabNcDoubleClicked@ExtensionMainDialog@@UEAAXXZ 000000018000d300     TakionGui:TakionGui.dll
 0002:00000308       __imp_??1ExtensionMainDialog@@UEAA@XZ 000000018000d308     TakionGui:TakionGui.dll
 0002:00000310       __imp_??0ExtensionMainDialog@@QEAA@HHPEBD0_K0KH_NH00QEAUHINSTANCE__@@2@Z 000000018000d310     TakionGui:TakionGui.dll
 0002:00000318       \177TakionGui_NULL_THUNK_DATA 000000018000d318     TakionGui:TakionGui.dll
 0002:00000320       __imp_?takionMillisecondBase@TakionTimeBase@@2IA 000000018000d320     TakionLog:TakionLog.dll
 0002:00000328       __imp_TL_GetMonth          000000018000d328     TakionLog:TakionLog.dll
 0002:00000330       __imp_TL_GetYear           000000018000d330     TakionLog:TakionLog.dll
 0002:00000338       __imp_TL_GetModuleVersionNum 000000018000d338     TakionLog:TakionLog.dll
 0002:00000340       __imp_TL_GetDay            000000018000d340     TakionLog:TakionLog.dll
 0002:00000348       \177TakionLog_NULL_THUNK_DATA 000000018000d348     TakionLog:TakionLog.dll
 0002:00000350       __imp_?FindRoutingByNumericName@Destination@@QEBAPEBVDestinationRouting@@I@Z 000000018000d350     TakionUtils:TakionUtils.dll
 0002:00000358       __imp_?GetId@Account@@QEBAPEBDXZ 000000018000d358     TakionUtils:TakionUtils.dll
 0002:00000360       __imp_?CancelOpeningOrders@Position@@QEAAIXZ 000000018000d360     TakionUtils:TakionUtils.dll
 0002:00000368       __imp_TU_GetModuleVersionNum 000000018000d368     TakionUtils:TakionUtils.dll
 0002:00000370       \177TakionUtils_NULL_THUNK_DATA 000000018000d370     TakionUtils:TakionUtils.dll
 0002:00000378       __imp_EnableWindow         000000018000d378     user32:USER32.dll
 0002:00000380       __imp_GetSysColor          000000018000d380     user32:USER32.dll
 0002:00000388       \177USER32_NULL_THUNK_DATA 000000018000d388     user32:USER32.dll
 0002:00000390       __imp_U_QueryVersionResourceValue 000000018000d390     Utils:Utils.dll
 0002:00000398       __imp_U_InitializeInstanceInfo 000000018000d398     Utils:Utils.dll
 0002:000003a0       __imp_U_VersionStrToNum    000000018000d3a0     Utils:Utils.dll
 0002:000003a8       __imp_U_GetModuleVersionNum 000000018000d3a8     Utils:Utils.dll
 0002:000003b0       __imp_?signedPriceZero@SignedPrice@@2V1@B 000000018000d3b0     Utils:Utils.dll
 0002:000003b8       __imp_?oneCent@Price@@2V1@B 000000018000d3b8     Utils:Utils.dll
 0002:000003c0       __imp_??GPrice@@QEBA?AVSignedPrice@@AEBV0@@Z 000000018000d3c0     Utils:Utils.dll
 0002:000003c8       __imp_??BSignedPrice@@QEBA?AVPrice@@XZ 000000018000d3c8     Utils:Utils.dll
 0002:000003d0       __imp_U_DoubleToPrice      000000018000d3d0     Utils:Utils.dll
 0002:000003d8       __imp_??N?$Monetary@II$08@@QEBA_NAEBV0@@Z 000000018000d3d8     Utils:Utils.dll
 0002:000003e0       __imp_?priceZero@Price@@2V1@B 000000018000d3e0     Utils:Utils.dll
 0002:000003e8       __imp_U_FormatMillisecond  000000018000d3e8     Utils:Utils.dll
 0002:000003f0       __imp_U_VersionNumToStr    000000018000d3f0     Utils:Utils.dll
 0002:000003f8       \177Utils_NULL_THUNK_DATA  000000018000d3f8     Utils:Utils.dll
 0002:00000400       __imp_?OnCancel@TakionMessageBox@@UEAAXXZ 000000018000d400     UtilsGui:UtilsGui.dll
 0002:00000408       __imp_?GetBkColor@ColoredDraggableDialog@@UEBAKXZ 000000018000d408     UtilsGui:UtilsGui.dll
 0002:00000410       __imp_?GetBkBrush@ColoredDraggableDialog@@UEBAPEAVCBrush@@XZ 000000018000d410     UtilsGui:UtilsGui.dll
 0002:00000418       __imp_?GetCurrentLeaf@TakionDialog@@UEBAPEBVTakionSettingDialog@@XZ 000000018000d418     UtilsGui:UtilsGui.dll
 0002:00000420       __imp_?GetCurrentLeaf@TakionDialog@@UEAAPEAVTakionSettingDialog@@XZ 000000018000d420     UtilsGui:UtilsGui.dll
 0002:00000428       __imp_?Apply@TakionDialog@@UEAAXXZ 000000018000d428     UtilsGui:UtilsGui.dll
 0002:00000430       __imp_?isPointForRButtonMenuOk@TakionDialog@@UEBA_NIVCPoint@@@Z 000000018000d430     UtilsGui:UtilsGui.dll
 0002:00000438       __imp_?isPointForNcRButtonMenuOk@TakionDialog@@UEBA_NIVCPoint@@@Z 000000018000d438     UtilsGui:UtilsGui.dll
 0002:00000440       __imp_?isTooltipConfigValid@TakionDialog@@UEBA_NXZ 000000018000d440     UtilsGui:UtilsGui.dll
 0002:00000448       __imp_?isToolTipsEnabledAdditional@TakionDialog@@UEBA_NXZ 000000018000d448     UtilsGui:UtilsGui.dll
 0002:00000450       __imp_?isToolTipsEnabled@TakionDialog@@UEBA_NXZ 000000018000d450     UtilsGui:UtilsGui.dll
 0002:00000458       __imp_?DisplayMenu@TakionDialog@@MEAAXAEBVCPoint@@@Z 000000018000d458     UtilsGui:UtilsGui.dll
 0002:00000460       __imp_?isCloseOnEnter@TakionDialog@@MEBA_NXZ 000000018000d460     UtilsGui:UtilsGui.dll
 0002:00000468       __imp_?BeforeDestroy@TakionMessageBox@@MEAAXXZ 000000018000d468     UtilsGui:UtilsGui.dll
 0002:00000470       __imp_?AfterClose@ColoredDraggableDialog@@MEAAXXZ 000000018000d470     UtilsGui:UtilsGui.dll
 0002:00000478       __imp_?DoPaint@TakionMessageBox@@MEAAXAEBUtagRECT@@AEAVCDC@@@Z 000000018000d478     UtilsGui:UtilsGui.dll
 0002:00000480       __imp_?Resize@TakionMessageBox@@MEAAX_N0@Z 000000018000d480     UtilsGui:UtilsGui.dll
 0002:00000488       __imp_?SetBkColor@ColoredDraggableDialog@@UEAAXK@Z 000000018000d488     UtilsGui:UtilsGui.dll
 0002:00000490       __imp_?OnBlink@TakionMessageBox@@MEAAXXZ 000000018000d490     UtilsGui:UtilsGui.dll
 0002:00000498       __imp_?UpdateColors@TakionMessageBox@@UEAAXXZ 000000018000d498     UtilsGui:UtilsGui.dll
 0002:000004a0       __imp_?PrepareToDisplay@TakionMessageBox@@MEAA_JPEAVCWnd@@PEBDIKKKKKKI111@Z 000000018000d4a0     UtilsGui:UtilsGui.dll
 0002:000004a8       __imp_?FillControls@TakionMessageBox@@MEAAXXZ 000000018000d4a8     UtilsGui:UtilsGui.dll
 0002:000004b0       __imp_?CalculateSize@TakionMessageBox@@MEAAXXZ 000000018000d4b0     UtilsGui:UtilsGui.dll
 0002:000004b8       __imp_?GetMessageMap@TakionPopupWnd@@MEBAPEBUAFX_MSGMAP@@XZ 000000018000d4b8     UtilsGui:UtilsGui.dll
 0002:000004c0       __imp_?PreCreateWindow@TakionPopupWnd@@MEAAHAEAUtagCREATESTRUCTA@@@Z 000000018000d4c0     UtilsGui:UtilsGui.dll
 0002:000004c8       __imp_?OnCommand@TakionFrame@@MEAAH_K_J@Z 000000018000d4c8     UtilsGui:UtilsGui.dll
 0002:000004d0       __imp_?OnNotify@TakionBaseWnd@@MEAAH_K_JPEA_J@Z 000000018000d4d0     UtilsGui:UtilsGui.dll
 0002:000004d8       __imp_?PostNcDestroy@TakionFrame@@MEAAXXZ 000000018000d4d8     UtilsGui:UtilsGui.dll
 0002:000004e0       __imp_?isChild@TakionBaseWnd@@UEBA_NXZ 000000018000d4e0     UtilsGui:UtilsGui.dll
 0002:000004e8       __imp_?GetToolId@TakionBaseWnd@@UEBAPEBDXZ 000000018000d4e8     UtilsGui:UtilsGui.dll
 0002:000004f0       __imp_?GetDefaultGraphicsId@TakionBaseWnd@@UEBA?AV?$basic_string@DU?$char_traits@D@std@@V?$allocator@D@2@@std@@XZ 000000018000d4f0     UtilsGui:UtilsGui.dll
 0002:000004f8       __imp_?GetTakionInstanceHandle@TakionPopupWnd@@UEBAPEAUHINSTANCE__@@XZ 000000018000d4f8     UtilsGui:UtilsGui.dll
 0002:00000500       __imp_?DrawMenuItem@TakionFrame@@MEAAXPEAUtagDRAWITEMSTRUCT@@@Z 000000018000d500     UtilsGui:UtilsGui.dll
 0002:00000508       __imp_?MeasureMenuItem@TakionFrame@@MEAA_NPEAUtagMEASUREITEMSTRUCT@@@Z 000000018000d508     UtilsGui:UtilsGui.dll
 0002:00000510       __imp_?OnMouseForcedReleaseCapture@TakionFrame@@MEAAXXZ 000000018000d510     UtilsGui:UtilsGui.dll
 0002:00000518       __imp_?NcMouseEntered@TakionBaseWnd@@MEAAXXZ 000000018000d518     UtilsGui:UtilsGui.dll
 0002:00000520       __imp_?NcMouseLeft@TakionBaseWnd@@MEAAXXZ 000000018000d520     UtilsGui:UtilsGui.dll
 0002:00000528       __imp_?GetBkColor@TakionPopupWnd@@UEBAKXZ 000000018000d528     UtilsGui:UtilsGui.dll
 0002:00000530       __imp_?GetTitleColorActive@TakionFrame@@UEBAKXZ 000000018000d530     UtilsGui:UtilsGui.dll
 0002:00000538       __imp_?GetTitleColorInactive@TakionFrame@@UEBAKXZ 000000018000d538     UtilsGui:UtilsGui.dll
 0002:00000540       __imp_?GetTitleColorTextActive@TakionFrame@@UEBAKXZ 000000018000d540     UtilsGui:UtilsGui.dll
 0002:00000548       __imp_?GetTitleColorTextInactive@TakionFrame@@UEBAKXZ 000000018000d548     UtilsGui:UtilsGui.dll
 0002:00000550       __imp_?GetWindowName@TakionFrame@@UEBAPEBDXZ 000000018000d550     UtilsGui:UtilsGui.dll
 0002:00000558       __imp_?GetHelpUrl@TakionFrame@@UEBA?AV?$basic_string@DU?$char_traits@D@std@@V?$allocator@D@2@@std@@XZ 000000018000d558     UtilsGui:UtilsGui.dll
 0002:00000560       __imp_?Help@TakionFrame@@UEAAXXZ 000000018000d560     UtilsGui:UtilsGui.dll
 0002:00000568       __imp_?GetCurrentFontParams@TakionFrame@@UEBA_NAEAV?$basic_string@DU?$char_traits@D@std@@V?$allocator@D@2@@std@@AEAVFontDescription@@1AEA_NAEAI@Z 000000018000d568     UtilsGui:UtilsGui.dll
 0002:00000570       __imp_?SetCustomFont@TakionFrame@@UEAAXAEBVFontDescription@@_NI@Z 000000018000d570     UtilsGui:UtilsGui.dll
 0002:00000578       __imp_?SetCustomColors@TakionFrame@@UEAAXPEBVGraphics@@PEAVGraphicsColorCollection@@PEBKG_NAEBVFilterStringAsNumberArray@@@Z 000000018000d578     UtilsGui:UtilsGui.dll
 0002:00000580       __imp_?toString@TakionFrame@@UEBAXAEAV?$basic_string@DU?$char_traits@D@std@@V?$allocator@D@2@@std@@I@Z 000000018000d580     UtilsGui:UtilsGui.dll
 0002:00000588       __imp_?fromString@TakionFrame@@UEAAXAEAPEBD_K_NI@Z 000000018000d588     UtilsGui:UtilsGui.dll
 0002:00000590       __imp_?fromScratch@TakionFrame@@UEAAXXZ 000000018000d590     UtilsGui:UtilsGui.dll
 0002:00000598       __imp_?CreateTakionWnd@TakionPopupWnd@@UEAA_NPEBVCRect@@_N@Z 000000018000d598     UtilsGui:UtilsGui.dll
 0002:000005a0       __imp_?GetSettingsTabPath@TakionFrame@@UEBAPEBDAEBVCPoint@@@Z 000000018000d5a0     UtilsGui:UtilsGui.dll
 0002:000005a8       __imp_?GetSettingsTabInitInfo@TakionFrame@@UEBAPEBXAEBVCPoint@@@Z 000000018000d5a8     UtilsGui:UtilsGui.dll
 0002:000005b0       __imp_?GetGraphicsTabInitInfo@TakionFrame@@UEBAPEBXAEBVCPoint@@@Z 000000018000d5b0     UtilsGui:UtilsGui.dll
 0002:000005b8       __imp_?SetTakionNamedFilter@TakionFrame@@UEAAXPEAVTakionFilter@@AEBV?$basic_string@DU?$char_traits@D@std@@V?$allocator@D@2@@std@@@Z 000000018000d5b8     UtilsGui:UtilsGui.dll
 0002:000005c0       __imp_?NullifyNamedFilter@TakionFrame@@UEAAXXZ 000000018000d5c0     UtilsGui:UtilsGui.dll
 0002:000005c8       __imp_?LeaveFilter@TakionFrame@@UEAAXXZ 000000018000d5c8     UtilsGui:UtilsGui.dll
 0002:000005d0       __imp_?GetFilter@TakionFrame@@UEBAPEBVTakionFilter@@XZ 000000018000d5d0     UtilsGui:UtilsGui.dll
 0002:000005d8       __imp_?GetTakionNamedFilter@TakionFrame@@UEBAPEBVTakionFilter@@XZ 000000018000d5d8     UtilsGui:UtilsGui.dll
 0002:000005e0       __imp_?SetCommandToolOrdinal@TakionFrame@@UEAAXI@Z 000000018000d5e0     UtilsGui:UtilsGui.dll
 0002:000005e8       __imp_?GetNormalRect@TakionFrame@@UEBAAEBVCRect@@XZ 000000018000d5e8     UtilsGui:UtilsGui.dll
 0002:000005f0       __imp_?UpdateSystemRects@TakionFrame@@UEAAXXZ 000000018000d5f0     UtilsGui:UtilsGui.dll
 0002:000005f8       __imp_?AdjustFrameRect@TakionFrame@@UEAAXXZ 000000018000d5f8     UtilsGui:UtilsGui.dll
 0002:00000600       __imp_?GetHitTest@TakionFrame@@UEBA_JAEBVCPoint@@@Z 000000018000d600     UtilsGui:UtilsGui.dll
 0002:00000608       __imp_?GetInitialLeft@TakionFrame@@UEBAHXZ 000000018000d608     UtilsGui:UtilsGui.dll
 0002:00000610       __imp_?GetInitialTop@TakionFrame@@UEBAHXZ 000000018000d610     UtilsGui:UtilsGui.dll
 0002:00000618       __imp_?GetInitialWidth@TakionFrame@@UEBAHXZ 000000018000d618     UtilsGui:UtilsGui.dll
 0002:00000620       __imp_?GetInitialHeight@TakionFrame@@UEBAHXZ 000000018000d620     UtilsGui:UtilsGui.dll
 0002:00000628       __imp_?GetSysMenu@TakionFrame@@UEBAPEAVCMenu@@XZ 000000018000d628     UtilsGui:UtilsGui.dll
 0002:00000630       __imp_?AcceptText@TakionFrame@@UEAAXPEBDI@Z 000000018000d630     UtilsGui:UtilsGui.dll
 0002:00000638       __imp_?AcceptPrice@TakionFrame@@UEAAXAEBVPrice@@I@Z 000000018000d638     UtilsGui:UtilsGui.dll
 0002:00000640       __imp_?AcceptDate@TakionFrame@@UEAAXAEBII@Z 000000018000d640     UtilsGui:UtilsGui.dll
 0002:00000648       __imp_?ProcessKeyDown@TakionFrame@@UEAA_NEE_NPEAV1@@Z 000000018000d648     UtilsGui:UtilsGui.dll
 0002:00000650       __imp_?ProcessKeyUp@TakionFrame@@UEAA_NEEPEAV1@@Z 000000018000d650     UtilsGui:UtilsGui.dll
 0002:00000658       __imp_?GetScrollHorizontalOffset@TakionFrame@@UEBAHXZ 000000018000d658     UtilsGui:UtilsGui.dll
 0002:00000660       __imp_?GetScrollVerticalOffset@TakionFrame@@UEBAHXZ 000000018000d660     UtilsGui:UtilsGui.dll
 0002:00000668       __imp_?ToggleMaximized@TakionFrame@@UEAA_NXZ 000000018000d668     UtilsGui:UtilsGui.dll
 0002:00000670       __imp_?isRemoved@TakionFrame@@UEBA_NXZ 000000018000d670     UtilsGui:UtilsGui.dll
 0002:00000678       __imp_?isInRectForClientMenu@TakionFrame@@UEBA_NAEBVCPoint@@@Z 000000018000d678     UtilsGui:UtilsGui.dll
 0002:00000680       __imp_?isTool@TakionFrame@@UEBA_NXZ 000000018000d680     UtilsGui:UtilsGui.dll
 0002:00000688       __imp_?GetToolOrdinal@TakionFrame@@UEBAAEBIXZ 000000018000d688     UtilsGui:UtilsGui.dll
 0002:00000690       __imp_?isCommandTool@TakionFrame@@UEBA_NXZ 000000018000d690     UtilsGui:UtilsGui.dll
 0002:00000698       __imp_?GetCommandToolOrdinal@TakionFrame@@UEBAAEBIXZ 000000018000d698     UtilsGui:UtilsGui.dll
 0002:000006a0       __imp_?isHidden@TakionFrame@@UEBA_NXZ 000000018000d6a0     UtilsGui:UtilsGui.dll
 0002:000006a8       __imp_?GetWorkspace@TakionFrame@@UEBAIXZ 000000018000d6a8     UtilsGui:UtilsGui.dll
 0002:000006b0       __imp_?GetLayer@TakionFrame@@UEBAIXZ 000000018000d6b0     UtilsGui:UtilsGui.dll
 0002:000006b8       __imp_?SetLocked@TakionFrame@@UEAAXAEB_N@Z 000000018000d6b8     UtilsGui:UtilsGui.dll
 0002:000006c0       __imp_?CalculateLeft@TakionFrame@@UEBAHXZ 000000018000d6c0     UtilsGui:UtilsGui.dll
 0002:000006c8       __imp_?CalculateTop@TakionFrame@@UEBAHXZ 000000018000d6c8     UtilsGui:UtilsGui.dll
 0002:000006d0       __imp_?CalculateRight@TakionFrame@@UEBAHXZ 000000018000d6d0     UtilsGui:UtilsGui.dll
 0002:000006d8       __imp_?CalculateBottom@TakionFrame@@UEBAHXZ 000000018000d6d8     UtilsGui:UtilsGui.dll
 0002:000006e0       __imp_?GetLeft@TakionFrame@@UEBAHXZ 000000018000d6e0     UtilsGui:UtilsGui.dll
 0002:000006e8       __imp_?GetTop@TakionFrame@@UEBAHXZ 000000018000d6e8     UtilsGui:UtilsGui.dll
 0002:000006f0       __imp_?GetRight@TakionFrame@@UEBAHXZ 000000018000d6f0     UtilsGui:UtilsGui.dll
 0002:000006f8       __imp_?GetBottom@TakionFrame@@UEBAHXZ 000000018000d6f8     UtilsGui:UtilsGui.dll
 0002:00000700       __imp_?SetFrameRect@TakionFrame@@MEAAXAEBVCRect@@@Z 000000018000d700     UtilsGui:UtilsGui.dll
 0002:00000708       __imp_?AfterCloning@TakionFrame@@MEAAXXZ 000000018000d708     UtilsGui:UtilsGui.dll
 0002:00000710       __imp_?AfterPasting@TakionFrame@@MEAAXXZ 000000018000d710     UtilsGui:UtilsGui.dll
 0002:00000718       __imp_?AddToToolCollection@TakionFrame@@MEAA_NXZ 000000018000d718     UtilsGui:UtilsGui.dll
 0002:00000720       __imp_?GetHelpButton@TakionSettingDialog@@UEAAAEAVCButton@@XZ 000000018000d720     UtilsGui:UtilsGui.dll
 0002:00000728       __imp_?DisplayClientMenu@TakionFrame@@MEAAXIVCPoint@@@Z 000000018000d728     UtilsGui:UtilsGui.dll
 0002:00000730       __imp_?OffsetFrameRectAndMove@TakionFrame@@MEAAXHH@Z 000000018000d730     UtilsGui:UtilsGui.dll
 0002:00000738       __imp_?PreAddMenuItems@TakionFrame@@MEAAXAEAVCMenu@@@Z 000000018000d738     UtilsGui:UtilsGui.dll
 0002:00000740       __imp_?AddMenuItems@TakionFrame@@MEAAXAEAVCMenu@@@Z 000000018000d740     UtilsGui:UtilsGui.dll
 0002:00000748       __imp_?PostAddMenuItems@TakionFrame@@MEAAXAEAVCMenu@@@Z 000000018000d748     UtilsGui:UtilsGui.dll
 0002:00000750       __imp_?OnSetBkColor@TakionFrame@@MEAAXXZ 000000018000d750     UtilsGui:UtilsGui.dll
 0002:00000758       __imp_?ResizeMouseArea@TakionFrame@@MEAA_NAEBVCPoint@@_N@Z 000000018000d758     UtilsGui:UtilsGui.dll
 0002:00000760       __imp_?UpdateResizeCursor@TakionFrame@@MEAAEAEBVCPoint@@_N@Z 000000018000d760     UtilsGui:UtilsGui.dll
 0002:00000768       __imp_?DCCreated@TakionFrame@@MEAAXXZ 000000018000d768     UtilsGui:UtilsGui.dll
 0002:00000770       __imp_?DisplaySystemMenu@TakionFrame@@MEAAXAEBVCPoint@@@Z 000000018000d770     UtilsGui:UtilsGui.dll
 0002:00000778       __imp_?BeforeDestroy@TakionPopupWnd@@UEAAXXZ 000000018000d778     UtilsGui:UtilsGui.dll
 0002:00000780       __imp_?AfterDestroy@TakionFrame@@MEAAXXZ 000000018000d780     UtilsGui:UtilsGui.dll
 0002:00000788       __imp_?BeforeNcDestroy@TakionFrame@@MEAAXXZ 000000018000d788     UtilsGui:UtilsGui.dll
 0002:00000790       __imp_?DoActivate@TakionPopupWnd@@MEAAXI_N@Z 000000018000d790     UtilsGui:UtilsGui.dll
 0002:00000798       __imp_?MouseEntered@TakionFrame@@MEAAXXZ 000000018000d798     UtilsGui:UtilsGui.dll
 0002:000007a0       __imp_?MouseLeft@TakionFrame@@MEAAXXZ 000000018000d7a0     UtilsGui:UtilsGui.dll
 0002:000007a8       __imp_?MouseEnteredClientRect@TakionFrame@@MEAAXXZ 000000018000d7a8     UtilsGui:UtilsGui.dll
 0002:000007b0       __imp_?MouseLeftClientRect@TakionFrame@@MEAAXXZ 000000018000d7b0     UtilsGui:UtilsGui.dll
 0002:000007b8       __imp_?ClientSetCursor@TakionFrame@@MEAA_NXZ 000000018000d7b8     UtilsGui:UtilsGui.dll
 0002:000007c0       __imp_?DoPaint@TakionPopupWnd@@MEAAXAEBUtagRECT@@AEAVCDC@@@Z 000000018000d7c0     UtilsGui:UtilsGui.dll
 0002:000007c8       __imp_?DoSize@TakionPopupWnd@@MEAAXIHHHH@Z 000000018000d7c8     UtilsGui:UtilsGui.dll
 0002:000007d0       __imp_?CalculateWindowRect@TakionFrame@@MEAAXHHHH@Z 000000018000d7d0     UtilsGui:UtilsGui.dll
 0002:000007d8       __imp_?PreSuccessfulCreate@TakionFrame@@MEAAXXZ 000000018000d7d8     UtilsGui:UtilsGui.dll
 0002:000007e0       __imp_?OnSuccessfulCreate@TakionPopupWnd@@MEAAXXZ 000000018000d7e0     UtilsGui:UtilsGui.dll
 0002:000007e8       __imp_?DoMinimize@TakionFrame@@MEAAXI_J@Z 000000018000d7e8     UtilsGui:UtilsGui.dll
 0002:000007f0       __imp_?DoRestore@TakionFrame@@MEAAXI_J@Z 000000018000d7f0     UtilsGui:UtilsGui.dll
 0002:000007f8       __imp_?OnOK@TakionMessageBox@@UEAAXXZ 000000018000d7f8     UtilsGui:UtilsGui.dll
 0002:00000800       __imp_?AddToVisibleTools@TakionFrame@@MEAAXXZ 000000018000d800     UtilsGui:UtilsGui.dll
 0002:00000808       __imp_?OnTitleResize@TakionFrame@@MEAAXXZ 000000018000d808     UtilsGui:UtilsGui.dll
 0002:00000810       __imp_?DelayedCreationDone@TakionFrame@@MEAAXXZ 000000018000d810     UtilsGui:UtilsGui.dll
 0002:00000818       __imp_?GetInsideScreen@TakionPopupWnd@@UEBA_NAEAVCRect@@@Z 000000018000d818     UtilsGui:UtilsGui.dll
 0002:00000820       __imp_?TitleFontChanged@TakionFrame@@MEAAXXZ 000000018000d820     UtilsGui:UtilsGui.dll
 0002:00000828       __imp_?Renew@TakionPopupWnd@@UEAAXXZ 000000018000d828     UtilsGui:UtilsGui.dll
 0002:00000830       __imp_?UpdateColors@TakionPopupWnd@@UEAAXXZ 000000018000d830     UtilsGui:UtilsGui.dll
 0002:00000838       __imp_?OnBlink@TakionPopupWnd@@MEAAXXZ 000000018000d838     UtilsGui:UtilsGui.dll
 0002:00000840       __imp_?PrepareToDisplay@TakionPopupWnd@@MEAA_JPEAVCWnd@@PEBDIKKKKKKI111@Z 000000018000d840     UtilsGui:UtilsGui.dll
 0002:00000848       __imp_?CalculateSize@TakionPopupWnd@@MEAAXXZ 000000018000d848     UtilsGui:UtilsGui.dll
 0002:00000850       __imp_?MoveFrameRectToInitialPos@TakionPopupWnd@@MEAAXXZ 000000018000d850     UtilsGui:UtilsGui.dll
 0002:00000858       __imp_??0TakionSettingTabDialog@@QEAA@PEAVMainMessageLoopWnd@@PEAV0@PEBDHH2KH_NKK@Z 000000018000d858     UtilsGui:UtilsGui.dll
 0002:00000860       __imp_?AddSettingDialog@TakionSettingTabDialog@@QEAAXPEAVTakionSettingDialog@@@Z 000000018000d860     UtilsGui:UtilsGui.dll
 0002:00000868       __imp_?OnInitDialog@ExtensionMainDialogBase@@MEAAHXZ 000000018000d868     UtilsGui:UtilsGui.dll
 0002:00000870       __imp_?DisplayModal@TakionMessageBox@@QEAA_JPEAVCWnd@@PEBDIKKKKKKI111@Z 000000018000d870     UtilsGui:UtilsGui.dll
 0002:00000878       __imp_?BeforeDestroy@ExtensionMainDialogBase@@MEAAXXZ 000000018000d878     UtilsGui:UtilsGui.dll
 0002:00000880       __imp_?GetMessageMap@TakionSettingTabDialog@@MEBAPEBUAFX_MSGMAP@@XZ 000000018000d880     UtilsGui:UtilsGui.dll
 0002:00000888       __imp_?OnNotify@TakionSettingTabDialog@@MEAAH_K_JPEA_J@Z 000000018000d888     UtilsGui:UtilsGui.dll
 0002:00000890       __imp_?DoDataExchange@TakionSettingTabDialog@@MEAAXPEAVCDataExchange@@@Z 000000018000d890     UtilsGui:UtilsGui.dll
 0002:00000898       __imp_?OnInitDialog@TakionSettingTabDialog@@MEAAHXZ 000000018000d898     UtilsGui:UtilsGui.dll
 0002:000008a0       __imp_?GetCurrentLeaf@TakionSettingTabDialog@@UEBAPEBVTakionSettingDialog@@XZ 000000018000d8a0     UtilsGui:UtilsGui.dll
 0002:000008a8       __imp_?GetCurrentLeaf@TakionSettingTabDialog@@UEAAPEAVTakionSettingDialog@@XZ 000000018000d8a8     UtilsGui:UtilsGui.dll
 0002:000008b0       __imp_?GetFirstTabControl@TakionSettingTabDialog@@UEBAPEAUHWND__@@XZ 000000018000d8b0     UtilsGui:UtilsGui.dll
 0002:000008b8       __imp_?Entering@TakionSettingTabDialog@@MEAAXXZ 000000018000d8b8     UtilsGui:UtilsGui.dll
 0002:000008c0       __imp_?Leaving@TakionSettingTabDialog@@MEAAXXZ 000000018000d8c0     UtilsGui:UtilsGui.dll
 0002:000008c8       __imp_?FinishDialog@TakionSettingTabDialog@@MEAAXH@Z 000000018000d8c8     UtilsGui:UtilsGui.dll
 0002:000008d0       __imp_?Resize@TakionSettingTabDialog@@MEAAX_N0@Z 000000018000d8d0     UtilsGui:UtilsGui.dll
 0002:000008d8       __imp_?PropagateToolTipsEnabled@TakionSettingTabDialog@@MEAA_N_N@Z 000000018000d8d8     UtilsGui:UtilsGui.dll
 0002:000008e0       __imp_?PrepareForSavingLayout@TakionSettingTabDialog@@UEAAXXZ 000000018000d8e0     UtilsGui:UtilsGui.dll
 0002:000008e8       __imp_?UpdateSettings@TakionSettingTabDialog@@UEAAXXZ 000000018000d8e8     UtilsGui:UtilsGui.dll
 0002:000008f0       __imp_?UpdateControls@TakionSettingTabDialog@@UEAAXXZ 000000018000d8f0     UtilsGui:UtilsGui.dll
 0002:000008f8       __imp_?UpdateLeafControls@TakionSettingTabDialog@@UEAAXXZ 000000018000d8f8     UtilsGui:UtilsGui.dll
 0002:00000900       __imp_?DestroyInitInfo@TakionSettingDialog@@MEAAXPEBX@Z 000000018000d900     UtilsGui:UtilsGui.dll
 0002:00000908       __imp_?GetSettingDialogs@TakionSettingTabDialog@@UEAAPEAV?$vector@PEAVTakionSettingDialog@@V?$allocator@PEAVTakionSettingDialog@@@std@@@std@@XZ 000000018000d908     UtilsGui:UtilsGui.dll
 0002:00000910       __imp_?isLeaf@TakionSettingDialog@@UEBA_NXZ 000000018000d910     UtilsGui:UtilsGui.dll
 0002:00000918       __imp_?SetTabToOpen@TakionSettingTabDialog@@UEAA_NPEBDPEBX@Z 000000018000d918     UtilsGui:UtilsGui.dll
 0002:00000920       __imp_?SetInitialTab@TakionSettingTabDialog@@UEAAXXZ 000000018000d920     UtilsGui:UtilsGui.dll
 0002:00000928       __imp_?GetLevel@TakionSettingTabDialog@@UEBAIXZ 000000018000d928     UtilsGui:UtilsGui.dll
 0002:00000930       __imp_?GetCurrentTab@TakionSettingTabDialog@@UEBAHXZ 000000018000d930     UtilsGui:UtilsGui.dll
 0002:00000938       __imp_?GetMainTabDialog@TakionSettingTabDialog@@UEBAPEBV1@XZ 000000018000d938     UtilsGui:UtilsGui.dll
 0002:00000940       __imp_?GetMainTabDialog@TakionSettingTabDialog@@UEAAPEAV1@XZ 000000018000d940     UtilsGui:UtilsGui.dll
 0002:00000948       __imp_?GetTopDialogWidth@TakionSettingTabDialog@@UEBAHXZ 000000018000d948     UtilsGui:UtilsGui.dll
 0002:00000950       __imp_?GetTopDialogHeight@TakionSettingTabDialog@@UEBAHXZ 000000018000d950     UtilsGui:UtilsGui.dll
 0002:00000958       __imp_?RestoreLayout@TakionSettingTabDialog@@UEAAXXZ 000000018000d958     UtilsGui:UtilsGui.dll
 0002:00000960       __imp_?SameLayoutOnRestore@TakionSettingTabDialog@@UEAAXXZ 000000018000d960     UtilsGui:UtilsGui.dll
 0002:00000968       __imp_?isAlarm@TakionSettingTabDialog@@UEBA_NXZ 000000018000d968     UtilsGui:UtilsGui.dll
 0002:00000970       __imp_?SetAlarm@TakionSettingTabDialog@@UEAAX_NI@Z 000000018000d970     UtilsGui:UtilsGui.dll
 0002:00000978       __imp_?NullifyInitInfo@TakionSettingTabDialog@@MEAAXXZ 000000018000d978     UtilsGui:UtilsGui.dll
 0002:00000980       __imp_?DoApplyInitInfo@TakionSettingTabDialog@@MEAAXXZ 000000018000d980     UtilsGui:UtilsGui.dll
 0002:00000988       __imp_?SetActiveTab@TakionSettingTabDialog@@MEAAX_N@Z 000000018000d988     UtilsGui:UtilsGui.dll
 0002:00000990       __imp_?GetRightMargin@TakionSettingTabDialog@@UEBAHXZ 000000018000d990     UtilsGui:UtilsGui.dll
 0002:00000998       __imp_?TabNcDoubleClicked@TakionSettingTabDialog@@UEAAXXZ 000000018000d998     UtilsGui:UtilsGui.dll
 0002:000009a0       __imp_?isExtensionMainDialog@TakionSettingTabDialog@@UEBA_NXZ 000000018000d9a0     UtilsGui:UtilsGui.dll
 0002:000009a8       __imp_?isLeafRButtonMenuOk@TakionSettingTabDialog@@UEBA_NXZ 000000018000d9a8     UtilsGui:UtilsGui.dll
 0002:000009b0       __imp_?isLeafNcRButtonMenuOk@TakionSettingTabDialog@@UEBA_NXZ 000000018000d9b0     UtilsGui:UtilsGui.dll
 0002:000009b8       __imp_?DisplayPageMenu@TakionSettingTabDialog@@MEAAXPEAVTakionSettingPageBase@@AEBVCPoint@@@Z 000000018000d9b8     UtilsGui:UtilsGui.dll
 0002:000009c0       __imp_?SettingTabDestroyed@TakionSettingTabDialog@@MEAAXXZ 000000018000d9c0     UtilsGui:UtilsGui.dll
 0002:000009c8       __imp_?GetMessageMap@ExtensionMainDialogBase@@MEBAPEBUAFX_MSGMAP@@XZ 000000018000d9c8     UtilsGui:UtilsGui.dll
 0002:000009d0       __imp_?DoDataExchange@ExtensionMainDialogBase@@MEAAXPEAVCDataExchange@@@Z 000000018000d9d0     UtilsGui:UtilsGui.dll
 0002:000009d8       __imp_?Apply@TakionSettingTopDialog@@UEAAXXZ 000000018000d9d8     UtilsGui:UtilsGui.dll
 0002:000009e0       __imp_?isTooltipConfigValid@ExtensionMainDialogBase@@UEBA_NXZ 000000018000d9e0     UtilsGui:UtilsGui.dll
 0002:000009e8       __imp_?isToolTipsEnabledAdditional@ExtensionMainDialogBase@@UEBA_NXZ 000000018000d9e8     UtilsGui:UtilsGui.dll
 0002:000009f0       __imp_?isToolTipsEnabled@ExtensionMainDialogBase@@UEBA_NXZ 000000018000d9f0     UtilsGui:UtilsGui.dll
 0002:000009f8       __imp_?isCloseOnEnter@TakionSettingTopDialog@@MEBA_NXZ 000000018000d9f8     UtilsGui:UtilsGui.dll
 0002:00000a00       __imp_?FinishDialog@ExtensionMainDialogBase@@MEAAXH@Z 000000018000da00     UtilsGui:UtilsGui.dll
 0002:00000a08       __imp_?DoActivate@ExtensionMainDialogBase@@MEAAXI_N@Z 000000018000da08     UtilsGui:UtilsGui.dll
 0002:00000a10       __imp_?DoPaint@TakionSettingTopDialog@@MEAAXAEBUtagRECT@@AEAVCDC@@@Z 000000018000da10     UtilsGui:UtilsGui.dll
 0002:00000a18       __imp_?Resize@TakionSettingTopDialog@@MEAAX_N0@Z 000000018000da18     UtilsGui:UtilsGui.dll
 0002:00000a20       __imp_?GetMainTabDialog@TakionSettingTopDialog@@UEBAPEBVTakionSettingTabDialog@@XZ 000000018000da20     UtilsGui:UtilsGui.dll
 0002:00000a28       __imp_?GetMainTabDialog@TakionSettingTopDialog@@UEAAPEAVTakionSettingTabDialog@@XZ 000000018000da28     UtilsGui:UtilsGui.dll
 0002:00000a30       __imp_?GetTopDialogWidth@TakionSettingTopDialog@@UEBAHXZ 000000018000da30     UtilsGui:UtilsGui.dll
 0002:00000a38       __imp_?GetTopDialogHeight@TakionSettingTopDialog@@UEBAHXZ 000000018000da38     UtilsGui:UtilsGui.dll
 0002:00000a40       __imp_?GetOkButton@TakionSettingTopDialog@@UEAAAEAVCButton@@XZ 000000018000da40     UtilsGui:UtilsGui.dll
 0002:00000a48       __imp_?GetApplyButton@TakionSettingTopDialog@@UEAAAEAVCButton@@XZ 000000018000da48     UtilsGui:UtilsGui.dll
 0002:00000a50       __imp_?GetOnTopCheckBox@TakionSettingTopDialog@@UEAAAEAVCButton@@XZ 000000018000da50     UtilsGui:UtilsGui.dll
 0002:00000a58       __imp_?GetToolTipsCheckBox@TakionSettingTopDialog@@UEAAAEAVCButton@@XZ 000000018000da58     UtilsGui:UtilsGui.dll
 0002:00000a60       __imp_?GetCancelButton@TakionSettingTopDialog@@UEAAAEAVCButton@@XZ 000000018000da60     UtilsGui:UtilsGui.dll
 0002:00000a68       __imp_?GetHelpButton@TakionSettingTopDialog@@UEAAAEAVCButton@@XZ 000000018000da68     UtilsGui:UtilsGui.dll
 0002:00000a70       __imp_?EnableApplyButton@TakionSettingTopDialog@@UEAAX_N@Z 000000018000da70     UtilsGui:UtilsGui.dll
 0002:00000a78       __imp_?EnableOkButton@TakionSettingTopDialog@@UEAAX_N@Z 000000018000da78     UtilsGui:UtilsGui.dll
 0002:00000a80       __imp_?SetAlarm@TakionSettingTopDialog@@UEAAX_NI@Z 000000018000da80     UtilsGui:UtilsGui.dll
 0002:00000a88       __imp_?GetRightMargin@TakionSettingTopDialog@@UEBAHXZ 000000018000da88     UtilsGui:UtilsGui.dll
 0002:00000a90       __imp_?isExtensionMainDialog@ExtensionMainDialogBase@@UEBA_NXZ 000000018000da90     UtilsGui:UtilsGui.dll
 0002:00000a98       __imp_?isInitializedFromFile@ExtensionMainDialogBase@@UEBA_NXZ 000000018000da98     UtilsGui:UtilsGui.dll
 0002:00000aa0       __imp_?GetPosRect@ExtensionMainDialogBase@@UEAAXAEAVCRect@@@Z 000000018000daa0     UtilsGui:UtilsGui.dll
 0002:00000aa8       __imp_?ExtractIsAlwaysOnTop@ExtensionMainDialogBase@@UEBA_NXZ 000000018000daa8     UtilsGui:UtilsGui.dll
 0002:00000ab0       __imp_?ExtractIsShowToolTips@ExtensionMainDialogBase@@UEBA_NXZ 000000018000dab0     UtilsGui:UtilsGui.dll
 0002:00000ab8       __imp_?SaveAlwaysOnTop@ExtensionMainDialogBase@@MEAAX_N@Z 000000018000dab8     UtilsGui:UtilsGui.dll
 0002:00000ac0       __imp_?SaveShowToolTips@ExtensionMainDialogBase@@MEAAX_N@Z 000000018000dac0     UtilsGui:UtilsGui.dll
 0002:00000ac8       __imp_?PlaceButtons@ExtensionMainDialogBase@@MEAA_NXZ 000000018000dac8     UtilsGui:UtilsGui.dll
 0002:00000ad0       __imp_?GetExtensionFilePathAndName@ExtensionMainDialogBase@@UEBAPEBDXZ 000000018000dad0     UtilsGui:UtilsGui.dll
 0002:00000ad8       __imp_?OnMouseForcedReleaseCapture@TakionSettingTabDialog@@UEAAXXZ 000000018000dad8     UtilsGui:UtilsGui.dll
 0002:00000ae0       __imp_?AddMessage@TakionMessageBox@@QEAA_NPEBD_N1@Z 000000018000dae0     UtilsGui:UtilsGui.dll
 0002:00000ae8       __imp_??1TakionMessageBox@@UEAA@XZ 000000018000dae8     UtilsGui:UtilsGui.dll
 0002:00000af0       __imp_??0TakionMessageBox@@QEAA@PEAVMainMessageLoopWnd@@_NKI@Z 000000018000daf0     UtilsGui:UtilsGui.dll
 0002:00000af8       __imp_?GetLabel@TakionSettingDialog@@QEBAPEBDXZ 000000018000daf8     UtilsGui:UtilsGui.dll
 0002:00000b00       __imp_?Top@TakionDialog@@QEAAXXZ 000000018000db00     UtilsGui:UtilsGui.dll
 0002:00000b08       __imp_UGUI_GetModuleVersionNum 000000018000db08     UtilsGui:UtilsGui.dll
 0002:00000b10       __imp_??1ExtensionConfig@@UEAA@XZ 000000018000db10     UtilsGui:UtilsGui.dll
 0002:00000b18       __imp_?PreReadSetting@ConfigBase@@MEAA_NPEAVSetting@@AEBV?$basic_string@DU?$char_traits@D@std@@V?$allocator@D@2@@std@@PEBD@Z 000000018000db18     UtilsGui:UtilsGui.dll
 0002:00000b20       __imp_?AdjustOldVersion@ConfigBase@@MEAAXXZ 000000018000db20     UtilsGui:UtilsGui.dll
 0002:00000b28       __imp_?GetFlagCount@ConfigBase@@UEBAEXZ 000000018000db28     UtilsGui:UtilsGui.dll
 0002:00000b30       __imp_?isSettingNameToRead@ConfigBase@@UEBA_NIAEBV?$basic_string@DU?$char_traits@D@std@@V?$allocator@D@2@@std@@@Z 000000018000db30     UtilsGui:UtilsGui.dll
 0002:00000b38       __imp_?GetPosFileName@ConfigBase@@UEBAPEBDXZ 000000018000db38     UtilsGui:UtilsGui.dll
 0002:00000b40       __imp_?GetLogFileName@ConfigBase@@UEBAPEBDXZ 000000018000db40     UtilsGui:UtilsGui.dll
 0002:00000b48       __imp_?GetIniFileName@ConfigBase@@UEBAPEBDXZ 000000018000db48     UtilsGui:UtilsGui.dll
 0002:00000b50       __imp_?Update@ExtensionConfig@@UEAAXXZ 000000018000db50     UtilsGui:UtilsGui.dll
 0002:00000b58       __imp_??4ExtensionConfig@@QEAAAEAV0@AEBV0@@Z 000000018000db58     UtilsGui:UtilsGui.dll
 0002:00000b60       __imp_?AddSetting@ConfigBase@@IEAAXPEBDAEAVSetting@@@Z 000000018000db60     UtilsGui:UtilsGui.dll
 0002:00000b68       __imp_??1StringSetting@@UEAA@XZ 000000018000db68     UtilsGui:UtilsGui.dll
 0002:00000b70       __imp_??0StringSetting@@QEAA@AEBV?$basic_string@DU?$char_traits@D@std@@V?$allocator@D@2@@std@@@Z 000000018000db70     UtilsGui:UtilsGui.dll
 0002:00000b78       __imp_??1UIntSetting@@UEAA@XZ 000000018000db78     UtilsGui:UtilsGui.dll
 0002:00000b80       __imp_??0UIntSetting@@QEAA@AEBI@Z 000000018000db80     UtilsGui:UtilsGui.dll
 0002:00000b88       __imp_??0ExtensionConfig@@IEAA@PEAVTakionDialog@@@Z 000000018000db88     UtilsGui:UtilsGui.dll
 0002:00000b90       __imp_??1TakionSettingPageBase@@UEAA@XZ 000000018000db90     UtilsGui:UtilsGui.dll
 0002:00000b98       __imp_?GetHwnd@TakionDialog@@UEBAPEAUHWND__@@XZ 000000018000db98     UtilsGui:UtilsGui.dll
 0002:00000ba0       __imp_?OnMouseForcedReleaseCapture@TakionDialog@@UEAAXXZ 000000018000dba0     UtilsGui:UtilsGui.dll
 0002:00000ba8       __imp_?GetInsideScreen@TakionDialogInterface@@UEBA_NAEAVCRect@@@Z 000000018000dba8     UtilsGui:UtilsGui.dll
 0002:00000bb0       __imp_?UpdateSystemRects@TakionDialogInterface@@UEAAXXZ 000000018000dbb0     UtilsGui:UtilsGui.dll
 0002:00000bb8       __imp_?MoveToFrameRect@TakionDialog@@UEAAXXZ 000000018000dbb8     UtilsGui:UtilsGui.dll
 0002:00000bc0       __imp_?SetFrameRect@TakionDialog@@UEAAXAEBVCRect@@@Z 000000018000dbc0     UtilsGui:UtilsGui.dll
 0002:00000bc8       __imp_?DragWindow@TakionDialog@@UEAAXHH@Z 000000018000dbc8     UtilsGui:UtilsGui.dll
 0002:00000bd0       __imp_?OffsetFrameRectAndMove@TakionDialog@@UEAAXHH@Z 000000018000dbd0     UtilsGui:UtilsGui.dll
 0002:00000bd8       __imp_?AdjustFrameRect@TakionDialog@@UEAAXXZ 000000018000dbd8     UtilsGui:UtilsGui.dll
 0002:00000be0       __imp_?CloseDialog@TakionSettingDialog@@UEAAXXZ 000000018000dbe0     UtilsGui:UtilsGui.dll
 0002:00000be8       __imp_?isCloseOnCommandExecution@TakionDialogInterface@@UEBA_NXZ 000000018000dbe8     UtilsGui:UtilsGui.dll
 0002:00000bf0       __imp_?OnInitDialog@TakionMessageBox@@MEAAHXZ 000000018000dbf0     UtilsGui:UtilsGui.dll
 0002:00000bf8       __imp_?PreTranslateMessage@TakionMessageBox@@MEAAHPEAUtagMSG@@@Z 000000018000dbf8     UtilsGui:UtilsGui.dll
 0002:00000c00       __imp_?DoDataExchange@TakionMessageBox@@MEAAXPEAVCDataExchange@@@Z 000000018000dc00     UtilsGui:UtilsGui.dll
 0002:00000c08       __imp_?GetMessageMap@TakionMessageBox@@MEBAPEBUAFX_MSGMAP@@XZ 000000018000dc08     UtilsGui:UtilsGui.dll
 0002:00000c10       __imp_?SaveDlgLayoutAs@ExtensionMainDialogBase@@QEAAXXZ 000000018000dc10     UtilsGui:UtilsGui.dll
 0002:00000c18       __imp_?RestoreDlgLayout@ExtensionMainDialogBase@@QEAAXXZ 000000018000dc18     UtilsGui:UtilsGui.dll
 0002:00000c20       __imp_?SaveDlgLayout@ExtensionMainDialogBase@@QEAAXXZ 000000018000dc20     UtilsGui:UtilsGui.dll
 0002:00000c28       __imp_?OpenDlgLayout@ExtensionMainDialogBase@@QEAAXXZ 000000018000dc28     UtilsGui:UtilsGui.dll
 0002:00000c30       __imp_??1TakionPopupWnd@@UEAA@XZ 000000018000dc30     UtilsGui:UtilsGui.dll
 0002:00000c38       __imp_?AddCheckBox@TakionMessageBox@@QEAAXPEBD_N111@Z 000000018000dc38     UtilsGui:UtilsGui.dll
 0002:00000c40       __imp_?AddCheckBox@TakionPopupWnd@@QEAAXPEBD_N111@Z 000000018000dc40     UtilsGui:UtilsGui.dll
 0002:00000c48       __imp_??0TakionPopupWnd@@QEAA@PEAVMainMessageLoopWnd@@_NKIH@Z 000000018000dc48     UtilsGui:UtilsGui.dll
 0002:00000c50       __imp_?CreateModeless@TakionDialog@@QEAA_NPEAVCWnd@@@Z 000000018000dc50     UtilsGui:UtilsGui.dll
 0002:00000c58       __imp_?ApplyConfig@ExtensionMainDialogBase@@QEAAXI@Z 000000018000dc58     UtilsGui:UtilsGui.dll
 0002:00000c60       __imp_?SetConfig@ExtensionMainDialogBase@@QEAAXPEAVExtensionConfig@@@Z 000000018000dc60     UtilsGui:UtilsGui.dll
 0002:00000c68       __imp_?Serialize@ConfigBase@@QEAA_N_NPEBD10I@Z 000000018000dc68     UtilsGui:UtilsGui.dll
 0002:00000c70       __imp_?SetFileName@ConfigBase@@QEAA_NPEBD@Z 000000018000dc70     UtilsGui:UtilsGui.dll
 0002:00000c78       __imp_?AddMessage@TakionMessageBox@@QEAA_NAEBV?$basic_string@DU?$char_traits@D@std@@V?$allocator@D@2@@std@@_N1@Z 000000018000dc78     UtilsGui:UtilsGui.dll
 0002:00000c80       __imp_?DisplayModeless@TakionMessageBox@@QEAA_NPEAVCWnd@@PEBDIKKKKKK_NI111@Z 000000018000dc80     UtilsGui:UtilsGui.dll
 0002:00000c88       __imp_?ClearMessageList@TakionMessageBox@@QEAAX_N@Z 000000018000dc88     UtilsGui:UtilsGui.dll
 0002:00000c90       __imp_?DisplayModeless@TakionPopupWnd@@QEAA_NPEAVCWnd@@PEBDIKKKKKK_NI111@Z 000000018000dc90     UtilsGui:UtilsGui.dll
 0002:00000c98       __imp_?AddMessage@TakionPopupWnd@@QEAA_NPEBD_N1@Z 000000018000dc98     UtilsGui:UtilsGui.dll
 0002:00000ca0       __imp_?ClearMessageList@TakionPopupWnd@@QEAAX_N@Z 000000018000dca0     UtilsGui:UtilsGui.dll
 0002:00000ca8       __imp_?RemoveFromVisibleTools@TakionFrame@@MEAA_NXZ 000000018000dca8     UtilsGui:UtilsGui.dll
 0002:00000cb0       __imp_?Corner@TakionDialog@@QEAAXXZ 000000018000dcb0     UtilsGui:UtilsGui.dll
 0002:00000cb8       __imp_?GetCancelButton@TakionSettingDialog@@UEAAAEAVCButton@@XZ 000000018000dcb8     UtilsGui:UtilsGui.dll
 0002:00000cc0       __imp_?GetToolTipsCheckBox@TakionSettingDialog@@UEAAAEAVCButton@@XZ 000000018000dcc0     UtilsGui:UtilsGui.dll
 0002:00000cc8       __imp_?GetOnTopCheckBox@TakionSettingDialog@@UEAAAEAVCButton@@XZ 000000018000dcc8     UtilsGui:UtilsGui.dll
 0002:00000cd0       __imp_?GetApplyButton@TakionSettingDialog@@UEAAAEAVCButton@@XZ 000000018000dcd0     UtilsGui:UtilsGui.dll
 0002:00000cd8       __imp_?GetOkButton@TakionSettingDialog@@UEAAAEAVCButton@@XZ 000000018000dcd8     UtilsGui:UtilsGui.dll
 0002:00000ce0       __imp_?SameLayoutOnRestore@TakionSettingDialog@@UEAAXXZ 000000018000dce0     UtilsGui:UtilsGui.dll
 0002:00000ce8       __imp_?RestoreLayout@TakionSettingDialog@@UEAAXXZ 000000018000dce8     UtilsGui:UtilsGui.dll
 0002:00000cf0       __imp_?GetTopDialogHeight@TakionSettingDialog@@UEBAHXZ 000000018000dcf0     UtilsGui:UtilsGui.dll
 0002:00000cf8       __imp_?GetTopDialogWidth@TakionSettingDialog@@UEBAHXZ 000000018000dcf8     UtilsGui:UtilsGui.dll
 0002:00000d00       __imp_?GetMainTabDialog@TakionSettingDialog@@UEAAPEAVTakionSettingTabDialog@@XZ 000000018000dd00     UtilsGui:UtilsGui.dll
 0002:00000d08       __imp_?GetMainTabDialog@TakionSettingDialog@@UEBAPEBVTakionSettingTabDialog@@XZ 000000018000dd08     UtilsGui:UtilsGui.dll
 0002:00000d10       __imp_?GetCurrentTab@TakionSettingDialog@@UEBAHXZ 000000018000dd10     UtilsGui:UtilsGui.dll
 0002:00000d18       __imp_?GetLevel@TakionSettingPageBase@@UEBAIXZ 000000018000dd18     UtilsGui:UtilsGui.dll
 0002:00000d20       __imp_?SetInitialTab@TakionSettingDialog@@UEAAXXZ 000000018000dd20     UtilsGui:UtilsGui.dll
 0002:00000d28       __imp_?SetTabToOpen@TakionSettingDialog@@UEAA_NPEBDPEBX@Z 000000018000dd28     UtilsGui:UtilsGui.dll
 0002:00000d30       __imp_?isLeaf@TakionSettingPageBase@@UEBA_NXZ 000000018000dd30     UtilsGui:UtilsGui.dll
 0002:00000d38       __imp_?GetSettingDialogs@TakionSettingDialog@@UEAAPEAV?$vector@PEAVTakionSettingDialog@@V?$allocator@PEAVTakionSettingDialog@@@std@@@std@@XZ 000000018000dd38     UtilsGui:UtilsGui.dll
 0002:00000d40       __imp_?isActiveTab@TakionSettingPageBase@@UEBA_NXZ 000000018000dd40     UtilsGui:UtilsGui.dll
 0002:00000d48       __imp_?UpdateLeafControls@TakionSettingDialog@@UEAAXXZ 000000018000dd48     UtilsGui:UtilsGui.dll
 0002:00000d50       __imp_?PostInitDialog@TakionSettingDialog@@UEAAXXZ 000000018000dd50     UtilsGui:UtilsGui.dll
 0002:00000d58       __imp_?UpdateControls@TakionSettingDialog@@UEAAXXZ 000000018000dd58     UtilsGui:UtilsGui.dll
 0002:00000d60       __imp_?UpdateSettings@TakionSettingDialog@@UEAAXXZ 000000018000dd60     UtilsGui:UtilsGui.dll
 0002:00000d68       __imp_?PrepareForSavingLayout@TakionSettingDialog@@UEAAXXZ 000000018000dd68     UtilsGui:UtilsGui.dll
 0002:00000d70       __imp_?isForceApply@TakionSettingDialog@@UEBA_NXZ 000000018000dd70     UtilsGui:UtilsGui.dll
 0002:00000d78       __imp_?isModified@TakionSettingDialog@@UEBA_NXZ 000000018000dd78     UtilsGui:UtilsGui.dll
 0002:00000d80       __imp_?OnMakeSelection@TakionDialog@@MEAAXXZ 000000018000dd80     UtilsGui:UtilsGui.dll
 0002:00000d88       __imp_?NoActiveRectPressed@TakionDialog@@MEAA_NXZ 000000018000dd88     UtilsGui:UtilsGui.dll
 0002:00000d90       __imp_?DoDisplaySelection@TakionDialog@@MEAA_NAEBVCRect@@_N1@Z 000000018000dd90     UtilsGui:UtilsGui.dll
 0002:00000d98       __imp_?AddActiveRectMenuItems@TakionDialog@@MEAAXAEAVCMenu@@PEBVActiveRect@@@Z 000000018000dd98     UtilsGui:UtilsGui.dll
 0002:00000da0       __imp_?ActiveRectChanged@TakionDialog@@MEAAXXZ 000000018000dda0     UtilsGui:UtilsGui.dll
 0002:00000da8       __imp_?PropagateToolTipsEnabled@TakionDialog@@MEAA_N_N@Z 000000018000dda8     UtilsGui:UtilsGui.dll
 0002:00000db0       __imp_?InitializeToolTips@TakionDialog@@MEAA_NXZ 000000018000ddb0     UtilsGui:UtilsGui.dll
 0002:00000db8       __imp_?ToolTipsEnabled@TakionDialog@@MEAAX_N@Z 000000018000ddb8     UtilsGui:UtilsGui.dll
 0002:00000dc0       __imp_?DestroyToolTip@TakionDialog@@MEAA_NXZ 000000018000ddc0     UtilsGui:UtilsGui.dll
 0002:00000dc8       __imp_?CreateToolTip@TakionDialog@@MEAA_NXZ 000000018000ddc8     UtilsGui:UtilsGui.dll
 0002:00000dd0       __imp_?AfterControlsResized@TakionDialog@@MEAAX_N0@Z 000000018000ddd0     UtilsGui:UtilsGui.dll
 0002:00000dd8       __imp_?Resize@TakionDialog@@MEAAX_N0@Z 000000018000ddd8     UtilsGui:UtilsGui.dll
 0002:00000de0       __imp_?DoAdditionalPaint@TakionDialog@@MEAAXAEBUtagRECT@@AEAVCDC@@@Z 000000018000dde0     UtilsGui:UtilsGui.dll
 0002:00000de8       __imp_?DoPaint@TakionDialog@@MEAAXAEBUtagRECT@@AEAVCDC@@@Z 000000018000dde8     UtilsGui:UtilsGui.dll
 0002:00000df0       __imp_?DoActivate@TakionDialog@@MEAAXI_N@Z 000000018000ddf0     UtilsGui:UtilsGui.dll
 0002:00000df8       __imp_?UpdateResizeCursor@TakionDialog@@MEAAEAEBVCPoint@@_N@Z 000000018000ddf8     UtilsGui:UtilsGui.dll
 0002:00000e00       __imp_?ResizeMouseArea@TakionDialog@@MEAA_NAEBVCPoint@@@Z 000000018000de00     UtilsGui:UtilsGui.dll
 0002:00000e08       __imp_?ItemDropped@TakionDialog@@MEAAHPEAUHWND__@@PEAVListBoxOwnerDraw@@IPEAXAEAH@Z 000000018000de08     UtilsGui:UtilsGui.dll
 0002:00000e10       __imp_?LBDragDropAbort@TakionDialog@@MEAAXIH@Z 000000018000de10     UtilsGui:UtilsGui.dll
 0002:00000e18       __imp_?LBDragDropDone@TakionDialog@@MEAAXIHH@Z 000000018000de18     UtilsGui:UtilsGui.dll
 0002:00000e20       __imp_?LBItemDraggedAndDropped@TakionDialog@@MEAAXIGG@Z 000000018000de20     UtilsGui:UtilsGui.dll
 0002:00000e28       __imp_?LBDragEnter@TakionDialog@@MEAA_JAEAUDRAGDROPINFO@@IPEAVListBoxOwnerDraw@@@Z 000000018000de28     UtilsGui:UtilsGui.dll
 0002:00000e30       __imp_?DCCreated@TakionDialog@@MEAAXXZ 000000018000de30     UtilsGui:UtilsGui.dll
 0002:00000e38       __imp_?NcMouseLeft@TakionDialog@@MEAAXXZ 000000018000de38     UtilsGui:UtilsGui.dll
 0002:00000e40       __imp_?NcMouseEntered@TakionDialog@@MEAAXXZ 000000018000de40     UtilsGui:UtilsGui.dll
 0002:00000e48       __imp_?MouseLeft@TakionDialog@@MEAAXXZ 000000018000de48     UtilsGui:UtilsGui.dll
 0002:00000e50       __imp_?MouseEntered@TakionDialog@@MEAAXXZ 000000018000de50     UtilsGui:UtilsGui.dll
 0002:00000e58       __imp_?AfterClose@TakionDialog@@MEAAXXZ 000000018000de58     UtilsGui:UtilsGui.dll
 0002:00000e60       __imp_?FinishDialog@TakionDialog@@MEAAXH@Z 000000018000de60     UtilsGui:UtilsGui.dll
 0002:00000e68       __imp_?PreWheel@TakionDialog@@MEAA_NIFVCPoint@@@Z 000000018000de68     UtilsGui:UtilsGui.dll
 0002:00000e70       __imp_?TotalScrolledHorizontally@TakionDialog@@MEAAXIAEBVCRect@@H@Z 000000018000de70     UtilsGui:UtilsGui.dll
 0002:00000e78       __imp_?TitleScrolledHorizontally@TakionDialog@@MEAAXIAEBVCRect@@H@Z 000000018000de78     UtilsGui:UtilsGui.dll
 0002:00000e80       __imp_?isCloseOnEnter@TakionSettingDialog@@MEBA_NXZ 000000018000de80     UtilsGui:UtilsGui.dll
 0002:00000e88       __imp_?OnResizeToFrame@TakionDialog@@MEAAXXZ 000000018000de88     UtilsGui:UtilsGui.dll
 0002:00000e90       __imp_?ResizeControlsInitialized@TakionDialog@@MEAAXXZ 000000018000de90     UtilsGui:UtilsGui.dll
 0002:00000e98       __imp_?DialogCancelled@TakionDialog@@MEAAXXZ 000000018000de98     UtilsGui:UtilsGui.dll
 0002:00000ea0       __imp_?MeasureMenuItem@TakionDialog@@MEAA_NPEAUtagMEASUREITEMSTRUCT@@@Z 000000018000dea0     UtilsGui:UtilsGui.dll
 0002:00000ea8       __imp_?DrawMenuItem@TakionDialog@@MEAAXPEAUtagDRAWITEMSTRUCT@@@Z 000000018000dea8     UtilsGui:UtilsGui.dll
 0002:00000eb0       __imp_?PostAddMenuItems@TakionDialog@@MEAAXAEAVCMenu@@@Z 000000018000deb0     UtilsGui:UtilsGui.dll
 0002:00000eb8       __imp_?AddMenuItems@TakionDialog@@MEAAXAEAVCMenu@@@Z 000000018000deb8     UtilsGui:UtilsGui.dll
 0002:00000ec0       __imp_?PreAddMenuItems@TakionDialog@@MEAAXAEAVCMenu@@@Z 000000018000dec0     UtilsGui:UtilsGui.dll
 0002:00000ec8       __imp_?DisplayMenu@TakionSettingPageBase@@MEAAXAEBVCPoint@@@Z 000000018000dec8     UtilsGui:UtilsGui.dll
 0002:00000ed0       __imp_?isExecuteCommands@TakionDialogInterface@@UEBA_NXZ 000000018000ded0     UtilsGui:UtilsGui.dll
 0002:00000ed8       __imp_?SettingPageDestroyed@TakionSettingPageBase@@MEAAXXZ 000000018000ded8     UtilsGui:UtilsGui.dll
 0002:00000ee0       __imp_??1TakionSettingTabDialog@@UEAA@XZ 000000018000dee0     UtilsGui:UtilsGui.dll
 0002:00000ee8       __imp_?SetActiveTab@TakionSettingPageBase@@MEAAX_N@Z 000000018000dee8     UtilsGui:UtilsGui.dll
 0002:00000ef0       __imp_?InitControls@TakionDialog@@MEAAXXZ 000000018000def0     UtilsGui:UtilsGui.dll
 0002:00000ef8       __imp_?isToolTipsEnabled@TakionSettingDialog@@MEBA_NXZ 000000018000def8     UtilsGui:UtilsGui.dll
 0002:00000f00       __imp_?isToolTipsEnabledAdditional@TakionSettingDialog@@MEBA_NXZ 000000018000df00     UtilsGui:UtilsGui.dll
 0002:00000f08       __imp_?isTooltipConfigValid@TakionSettingDialog@@MEBA_NXZ 000000018000df08     UtilsGui:UtilsGui.dll
 0002:00000f10       __imp_?HasActiveRectMenu@TakionDialog@@UEBA_NPEBVActiveRect@@@Z 000000018000df10     UtilsGui:UtilsGui.dll
 0002:00000f18       __imp_?UpdateFrameRight@TakionDialog@@UEAA_NXZ 000000018000df18     UtilsGui:UtilsGui.dll
 0002:00000f20       __imp_?UpdateFrameBottom@TakionDialog@@UEAA_NXZ 000000018000df20     UtilsGui:UtilsGui.dll
 0002:00000f28       __imp_?isPointForNcRButtonMenuOk@TakionSettingPageBase@@UEBA_NIVCPoint@@@Z 000000018000df28     UtilsGui:UtilsGui.dll
 0002:00000f30       __imp_?isPointForRButtonMenuOk@TakionSettingPageBase@@UEBA_NIVCPoint@@@Z 000000018000df30     UtilsGui:UtilsGui.dll
 0002:00000f38       __imp_?GetTitleRect@TakionDialog@@UEBAXPEBVListBoxOwnerDraw@@AEAVCRect@@1@Z 000000018000df38     UtilsGui:UtilsGui.dll
 0002:00000f40       __imp_?GetTotalValue@TakionDialog@@UEBAPEBDIGPEADI@Z 000000018000df40     UtilsGui:UtilsGui.dll
 0002:00000f48       __imp_?GetHelpUrl@TakionDialog@@UEBA?AV?$basic_string@DU?$char_traits@D@std@@V?$allocator@D@2@@std@@XZ 000000018000df48     UtilsGui:UtilsGui.dll
 0002:00000f50       __imp_?Help@TakionDialog@@UEAAXXZ 000000018000df50     UtilsGui:UtilsGui.dll
 0002:00000f58       __imp_?Apply@TakionSettingDialog@@UEAAXXZ 000000018000df58     UtilsGui:UtilsGui.dll
 0002:00000f60       __imp_?GetFirstTabControl@TakionDialog@@UEBAPEAUHWND__@@XZ 000000018000df60     UtilsGui:UtilsGui.dll
 0002:00000f68       __imp_?GetCurrentLeaf@TakionSettingPageBase@@UEAAPEAVTakionSettingDialog@@XZ 000000018000df68     UtilsGui:UtilsGui.dll
 0002:00000f70       __imp_?GetCurrentLeaf@TakionSettingPageBase@@UEBAPEBVTakionSettingDialog@@XZ 000000018000df70     UtilsGui:UtilsGui.dll
 0002:00000f78       __imp_?isToDestroyOnFocus@TakionDialog@@UEBA_NXZ 000000018000df78     UtilsGui:UtilsGui.dll
 0002:00000f80       __imp_?isOrderDialog@TakionDialog@@UEBA_NXZ 000000018000df80     UtilsGui:UtilsGui.dll
 0002:00000f88       __imp_?GetBkBrush@TakionDialog@@UEBAPEAVCBrush@@XZ 000000018000df88     UtilsGui:UtilsGui.dll
 0002:00000f90       __imp_?GetBkColor@TakionDialog@@UEBAKXZ 000000018000df90     UtilsGui:UtilsGui.dll
 0002:00000f98       __imp_?OnCancel@TakionDialog@@UEAAXXZ 000000018000df98     UtilsGui:UtilsGui.dll
 0002:00000fa0       __imp_?OnOK@TakionSettingDialog@@UEAAXXZ 000000018000dfa0     UtilsGui:UtilsGui.dll
 0002:00000fa8       __imp_?DoModal@TakionDialog@@UEAA_JXZ 000000018000dfa8     UtilsGui:UtilsGui.dll
 0002:00000fb0       __imp_?PreTranslateMessage@TakionSettingDialog@@UEAAHPEAUtagMSG@@@Z 000000018000dfb0     UtilsGui:UtilsGui.dll
 0002:00000fb8       __imp_?OnNotify@TakionDialog@@MEAAH_K_JPEA_J@Z 000000018000dfb8     UtilsGui:UtilsGui.dll
 0002:00000fc0       __imp_?OnInitDialog@TakionDialog@@MEAAHXZ 000000018000dfc0     UtilsGui:UtilsGui.dll
 0002:00000fc8       __imp_?GetThisMessageMap@TakionSettingPageBase@@KAPEBUAFX_MSGMAP@@XZ 000000018000dfc8     UtilsGui:UtilsGui.dll
 0002:00000fd0       __imp_?EnableControl@TakionDialog@@SA_NPEAUHWND__@@_N0@Z 000000018000dfd0     UtilsGui:UtilsGui.dll
 0002:00000fd8       __imp_?BeforeDestroy@TakionDialog@@MEAAXXZ 000000018000dfd8     UtilsGui:UtilsGui.dll
 0002:00000fe0       __imp_?Leaving@TakionDialog@@MEAAXXZ 000000018000dfe0     UtilsGui:UtilsGui.dll
 0002:00000fe8       __imp_?Entering@TakionDialog@@MEAAXXZ 000000018000dfe8     UtilsGui:UtilsGui.dll
 0002:00000ff0       __imp_?AddStaticIndirect@TakionDialog@@QEAAXPEBDKKHHHHGG@Z 000000018000dff0     UtilsGui:UtilsGui.dll
 0002:00000ff8       __imp_?AddButtonIndirect@TakionDialog@@QEAAXPEBDKKHHHHGG@Z 000000018000dff8     UtilsGui:UtilsGui.dll
 0002:00001000       __imp_??0TakionSettingPageBase@@IEAA@PEAVMainMessageLoopWnd@@PEAVTakionSettingTabDialog@@PEBD@Z 000000018000e000     UtilsGui:UtilsGui.dll
 0002:00001008       __imp_?DoApplyInitInfo@TakionSettingDialog@@MEAAXXZ 000000018000e008     UtilsGui:UtilsGui.dll
 0002:00001010       __imp_?NullifyInitInfo@TakionSettingDialog@@MEAAXXZ 000000018000e010     UtilsGui:UtilsGui.dll
 0002:00001018       __imp_?SetupControls@TakionSettingDialog@@MEAAXXZ 000000018000e018     UtilsGui:UtilsGui.dll
 0002:00001020       __imp_?MeasurePageMenuItems@TakionSettingDialog@@UEBA_NPEAUtagMEASUREITEMSTRUCT@@@Z 000000018000e020     UtilsGui:UtilsGui.dll
 0002:00001028       __imp_?DrawPageMenuItems@TakionSettingDialog@@UEBA_NPEBUtagDRAWITEMSTRUCT@@@Z 000000018000e028     UtilsGui:UtilsGui.dll
 0002:00001030       __imp_?AddPageMenuItems@TakionSettingDialog@@UEBAXAEAVCMenu@@AEBVCPoint@@@Z 000000018000e030     UtilsGui:UtilsGui.dll
 0002:00001038       __imp_?OnPageCommand@TakionSettingDialog@@UEAA_NK@Z 000000018000e038     UtilsGui:UtilsGui.dll
 0002:00001040       __imp_?SetAlarm@TakionSettingPageBase@@UEAAX_NI@Z 000000018000e040     UtilsGui:UtilsGui.dll
 0002:00001048       __imp_?isAlarm@TakionSettingPageBase@@UEBA_NXZ 000000018000e048     UtilsGui:UtilsGui.dll
 0002:00001050       __imp_?EnableOkButton@TakionSettingDialog@@UEAAX_N@Z 000000018000e050     UtilsGui:UtilsGui.dll
 0002:00001058       __imp_?isActiveTab@TakionSettingDialog@@UEBA_NXZ 000000018000e058     UtilsGui:UtilsGui.dll
 0002:00001060       __imp_?EnableApplyButton@TakionSettingDialog@@UEAAX_N@Z 000000018000e060     UtilsGui:UtilsGui.dll
 0002:00001068       __imp_?DoApplyFilter@TakionFrame@@MEAAXAEBVTakionFilter@@_N@Z 000000018000e068     UtilsGui:UtilsGui.dll
 0002:00001070       \177UtilsGui_NULL_THUNK_DATA 000000018000e070     UtilsGui:UtilsGui.dll
 0002:00001078       __imp_memcpy               000000018000e078     vcruntime:VCRUNTIME140.dll
 0002:00001080       __imp__CxxThrowException   000000018000e080     vcruntime:VCRUNTIME140.dll
 0002:00001088       __imp___std_type_info_destroy_list 000000018000e088     vcruntime:VCRUNTIME140.dll
 0002:00001090       __imp___vcrt_InitializeCriticalSectionEx 000000018000e090     vcruntime:VCRUNTIME140.dll
 0002:00001098       __imp___C_specific_handler 000000018000e098     vcruntime:VCRUNTIME140.dll
 0002:000010a0       __imp_memset               000000018000e0a0     vcruntime:VCRUNTIME140.dll
 0002:000010a8       __imp_strrchr              000000018000e0a8     vcruntime:VCRUNTIME140.dll
 0002:000010b0       __imp___std_exception_destroy 000000018000e0b0     vcruntime:VCRUNTIME140.dll
 0002:000010b8       __imp___std_exception_copy 000000018000e0b8     vcruntime:VCRUNTIME140.dll
 0002:000010c0       __imp_memmove              000000018000e0c0     vcruntime:VCRUNTIME140.dll
 0002:000010c8       __imp___std_terminate      000000018000e0c8     vcruntime:VCRUNTIME140.dll
 0002:000010d0       __imp___CxxFrameHandler3   000000018000e0d0     vcruntime:VCRUNTIME140.dll
 0002:000010d8       __imp_memcmp               000000018000e0d8     vcruntime:VCRUNTIME140.dll
 0002:000010e0       \177VCRUNTIME140_NULL_THUNK_DATA 000000018000e0e0     vcruntime:VCRUNTIME140.dll
 0002:000010e8       __imp__unlock_file         000000018000e0e8     ucrt:api-ms-win-crt-filesystem-l1-1-0.dll
 0002:000010f0       __imp__lock_file           000000018000e0f0     ucrt:api-ms-win-crt-filesystem-l1-1-0.dll
 0002:000010f8       \177api-ms-win-crt-filesystem-l1-1-0_NULL_THUNK_DATA 000000018000e0f8     ucrt:api-ms-win-crt-filesystem-l1-1-0.dll
 0002:00001100       __imp_free                 000000018000e100     ucrt:api-ms-win-crt-heap-l1-1-0.dll
 0002:00001108       \177api-ms-win-crt-heap-l1-1-0_NULL_THUNK_DATA 000000018000e108     ucrt:api-ms-win-crt-heap-l1-1-0.dll
 0002:00001110       __imp__initterm            000000018000e110     ucrt:api-ms-win-crt-runtime-l1-1-0.dll
 0002:00001118       __imp__cexit               000000018000e118     ucrt:api-ms-win-crt-runtime-l1-1-0.dll
 0002:00001120       __imp__crt_atexit          000000018000e120     ucrt:api-ms-win-crt-runtime-l1-1-0.dll
 0002:00001128       __imp__execute_onexit_table 000000018000e128     ucrt:api-ms-win-crt-runtime-l1-1-0.dll
 0002:00001130       __imp__register_onexit_function 000000018000e130     ucrt:api-ms-win-crt-runtime-l1-1-0.dll
 0002:00001138       __imp__initialize_onexit_table 000000018000e138     ucrt:api-ms-win-crt-runtime-l1-1-0.dll
 0002:00001140       __imp__initialize_narrow_environment 000000018000e140     ucrt:api-ms-win-crt-runtime-l1-1-0.dll
 0002:00001148       __imp__configure_narrow_argv 000000018000e148     ucrt:api-ms-win-crt-runtime-l1-1-0.dll
 0002:00001150       __imp__seh_filter_dll      000000018000e150     ucrt:api-ms-win-crt-runtime-l1-1-0.dll
 0002:00001158       __imp__initterm_e          000000018000e158     ucrt:api-ms-win-crt-runtime-l1-1-0.dll
 0002:00001160       __imp__invalid_parameter_noinfo 000000018000e160     ucrt:api-ms-win-crt-runtime-l1-1-0.dll
 0002:00001168       __imp__errno               000000018000e168     ucrt:api-ms-win-crt-runtime-l1-1-0.dll
 0002:00001170       __imp__invalid_parameter_noinfo_noreturn 000000018000e170     ucrt:api-ms-win-crt-runtime-l1-1-0.dll
 0002:00001178       \177api-ms-win-crt-runtime-l1-1-0_NULL_THUNK_DATA 000000018000e178     ucrt:api-ms-win-crt-runtime-l1-1-0.dll
 0002:00001180       __imp_fwrite               000000018000e180     ucrt:api-ms-win-crt-stdio-l1-1-0.dll
 0002:00001188       __imp__get_stream_buffer_pointers 000000018000e188     ucrt:api-ms-win-crt-stdio-l1-1-0.dll
 0002:00001190       __imp_fclose               000000018000e190     ucrt:api-ms-win-crt-stdio-l1-1-0.dll
 0002:00001198       __imp_fgetpos              000000018000e198     ucrt:api-ms-win-crt-stdio-l1-1-0.dll
 0002:000011a0       __imp__fseeki64            000000018000e1a0     ucrt:api-ms-win-crt-stdio-l1-1-0.dll
 0002:000011a8       __imp_fsetpos              000000018000e1a8     ucrt:api-ms-win-crt-stdio-l1-1-0.dll
 0002:000011b0       __imp_setvbuf              000000018000e1b0     ucrt:api-ms-win-crt-stdio-l1-1-0.dll
 0002:000011b8       __imp_fflush               000000018000e1b8     ucrt:api-ms-win-crt-stdio-l1-1-0.dll
 0002:000011c0       __imp___stdio_common_vsprintf 000000018000e1c0     ucrt:api-ms-win-crt-stdio-l1-1-0.dll
 0002:000011c8       __imp___stdio_common_vsprintf_s 000000018000e1c8     ucrt:api-ms-win-crt-stdio-l1-1-0.dll
 0002:000011d0       __imp_fgetc                000000018000e1d0     ucrt:api-ms-win-crt-stdio-l1-1-0.dll
 0002:000011d8       __imp_ungetc               000000018000e1d8     ucrt:api-ms-win-crt-stdio-l1-1-0.dll
 0002:000011e0       __imp_fputc                000000018000e1e0     ucrt:api-ms-win-crt-stdio-l1-1-0.dll
 0002:000011e8       \177api-ms-win-crt-stdio-l1-1-0_NULL_THUNK_DATA 000000018000e1e8     ucrt:api-ms-win-crt-stdio-l1-1-0.dll
 0002:000011f0       __imp_strcpy_s             000000018000e1f0     ucrt:api-ms-win-crt-string-l1-1-0.dll
 0002:000011f8       \177api-ms-win-crt-string-l1-1-0_NULL_THUNK_DATA 000000018000e1f8     ucrt:api-ms-win-crt-string-l1-1-0.dll
 0002:00001200       __imp_?CheckAutoCenter@CDialog@@UEAAHXZ 000000018000e200     mfc140:mfc140.dll
 0002:00001208       __imp_?OnChildNotify@CWnd@@MEAAHI_K_JPEA_J@Z 000000018000e208     mfc140:mfc140.dll
 0002:00001210       __imp_?OnCmdMsg@CDialog@@UEAAHIHPEAXPEAUAFX_CMDHANDLERINFO@@@Z 000000018000e210     mfc140:mfc140.dll
 0002:00001218       __imp_?GetRuntimeClass@CDialog@@UEBAPEAUCRuntimeClass@@XZ 000000018000e218     mfc140:mfc140.dll
 0002:00001220       __imp_?SetWindowTextA@CWnd@@QEAAXPEBD@Z 000000018000e220     mfc140:mfc140.dll
 0002:00001228       __imp_?DDX_Control@@YAXPEAVCDataExchange@@HAEAVCWnd@@@Z 000000018000e228     mfc140:mfc140.dll
 0002:00001230       __imp_??1CStatic@@UEAA@XZ  000000018000e230     mfc140:mfc140.dll
 0002:00001238       __imp_?GetRuntimeClass@CStatic@@UEBAPEAUCRuntimeClass@@XZ 000000018000e238     mfc140:mfc140.dll
 0002:00001240       __imp_?OnChildNotify@CStatic@@MEAAHI_K_JPEA_J@Z 000000018000e240     mfc140:mfc140.dll
 0002:00001248       __imp_?Create@CStatic@@UEAAHPEBDKAEBUtagRECT@@PEAVCWnd@@I@Z 000000018000e248     mfc140:mfc140.dll
 0002:00001250       __imp_?DrawItem@CStatic@@UEAAXPEAUtagDRAWITEMSTRUCT@@@Z 000000018000e250     mfc140:mfc140.dll
 0002:00001258       __imp_??1CButton@@UEAA@XZ  000000018000e258     mfc140:mfc140.dll
 0002:00001260       __imp_??0CWnd@@QEAA@XZ     000000018000e260     mfc140:mfc140.dll
 0002:00001268       __imp_?GetRuntimeClass@CButton@@UEBAPEAUCRuntimeClass@@XZ 000000018000e268     mfc140:mfc140.dll
 0002:00001270       __imp_?OnCmdMsg@CCmdTarget@@UEAAHIHPEAXPEAUAFX_CMDHANDLERINFO@@@Z 000000018000e270     mfc140:mfc140.dll
 0002:00001278       __imp_?OnFinalRelease@CWnd@@UEAAXXZ 000000018000e278     mfc140:mfc140.dll
 0002:00001280       __imp_?IsInvokeAllowed@CCmdTarget@@UEAAHJ@Z 000000018000e280     mfc140:mfc140.dll
 0002:00001288       __imp_?GetDispatchIID@CCmdTarget@@UEAAHPEAU_GUID@@@Z 000000018000e288     mfc140:mfc140.dll
 0002:00001290       __imp_?GetTypeInfoCount@CCmdTarget@@UEAAIXZ 000000018000e290     mfc140:mfc140.dll
 0002:00001298       __imp_?GetTypeLibCache@CCmdTarget@@UEAAPEAVCTypeLibCache@@XZ 000000018000e298     mfc140:mfc140.dll
 0002:000012a0       __imp_?GetTypeLib@CCmdTarget@@UEAAJKPEAPEAUITypeLib@@@Z 000000018000e2a0     mfc140:mfc140.dll
 0002:000012a8       __imp_?GetMessageMap@CWnd@@MEBAPEBUAFX_MSGMAP@@XZ 000000018000e2a8     mfc140:mfc140.dll
 0002:000012b0       __imp_?GetCommandMap@CCmdTarget@@MEBAPEBUAFX_OLECMDMAP@@XZ 000000018000e2b0     mfc140:mfc140.dll
 0002:000012b8       __imp_?GetDispatchMap@CCmdTarget@@MEBAPEBUAFX_DISPMAP@@XZ 000000018000e2b8     mfc140:mfc140.dll
 0002:000012c0       __imp_?GetConnectionMap@CCmdTarget@@MEBAPEBUAFX_CONNECTIONMAP@@XZ 000000018000e2c0     mfc140:mfc140.dll
 0002:000012c8       __imp_?GetInterfaceMap@CWnd@@MEBAPEBUAFX_INTERFACEMAP@@XZ 000000018000e2c8     mfc140:mfc140.dll
 0002:000012d0       __imp_?GetEventSinkMap@CCmdTarget@@MEBAPEBUAFX_EVENTSINKMAP@@XZ 000000018000e2d0     mfc140:mfc140.dll
 0002:000012d8       __imp_?OnCreateAggregates@CCmdTarget@@UEAAHXZ 000000018000e2d8     mfc140:mfc140.dll
 0002:000012e0       __imp_?GetInterfaceHook@CCmdTarget@@UEAAPEAUIUnknown@@PEBX@Z 000000018000e2e0     mfc140:mfc140.dll
 0002:000012e8       __imp_?GetExtraConnectionPoints@CCmdTarget@@MEAAHPEAVCPtrArray@@@Z 000000018000e2e8     mfc140:mfc140.dll
 0002:000012f0       __imp_?GetConnectionHook@CCmdTarget@@MEAAPEAUIConnectionPoint@@AEBU_GUID@@@Z 000000018000e2f0     mfc140:mfc140.dll
 0002:000012f8       __imp_?PreSubclassWindow@CWnd@@UEAAXXZ 000000018000e2f8     mfc140:mfc140.dll
 0002:00001300       __imp_?Create@CWnd@@UEAAHPEBD0KAEBUtagRECT@@PEAV1@IPEAUCCreateContext@@@Z 000000018000e300     mfc140:mfc140.dll
 0002:00001308       __imp_?CreateEx@CWnd@@UEAAHKPEBD0KAEBUtagRECT@@PEAV1@IPEAX@Z 000000018000e308     mfc140:mfc140.dll
 0002:00001310       __imp_?CreateEx@CWnd@@UEAAHKPEBD0KHHHHPEAUHWND__@@PEAUHMENU__@@PEAX@Z 000000018000e310     mfc140:mfc140.dll
 0002:00001318       __imp_?DestroyWindow@CWnd@@UEAAHXZ 000000018000e318     mfc140:mfc140.dll
 0002:00001320       __imp_?PreCreateWindow@CWnd@@UEAAHAEAUtagCREATESTRUCTA@@@Z 000000018000e320     mfc140:mfc140.dll
 0002:00001328       __imp_?CalcWindowRect@CWnd@@UEAAXPEAUtagRECT@@I@Z 000000018000e328     mfc140:mfc140.dll
 0002:00001330       __imp_?GetMenu@CWnd@@UEBAPEAVCMenu@@XZ 000000018000e330     mfc140:mfc140.dll
 0002:00001338       __imp_?SetMenu@CWnd@@UEAAHPEAVCMenu@@@Z 000000018000e338     mfc140:mfc140.dll
 0002:00001340       __imp_?OnToolHitTest@CWnd@@UEBA_JVCPoint@@PEAUtagTOOLINFOA@@@Z 000000018000e340     mfc140:mfc140.dll
 0002:00001348       __imp_?GetScrollBarCtrl@CWnd@@UEBAPEAVCScrollBar@@H@Z 000000018000e348     mfc140:mfc140.dll
 0002:00001350       __imp_?WinHelpA@CWnd@@UEAAX_KI@Z 000000018000e350     mfc140:mfc140.dll
 0002:00001358       __imp_?HtmlHelpA@CWnd@@UEAAX_KI@Z 000000018000e358     mfc140:mfc140.dll
 0002:00001360       __imp_?WinHelpInternal@CWnd@@UEAAX_KI@Z 000000018000e360     mfc140:mfc140.dll
 0002:00001368       __imp_?ContinueModal@CWnd@@UEAAHXZ 000000018000e368     mfc140:mfc140.dll
 0002:00001370       __imp_?EndModalLoop@CWnd@@UEAAXH@Z 000000018000e370     mfc140:mfc140.dll
 0002:00001378       __imp_?OnDrawIconicThumbnailOrLivePreview@CWnd@@UEAAXAEAVCDC@@VCRect@@VCSize@@HAEAH@Z 000000018000e378     mfc140:mfc140.dll
 0002:00001380       __imp_?EnsureStdObj@CWnd@@UEAAJXZ 000000018000e380     mfc140:mfc140.dll
 0002:00001388       __imp_?get_accParent@CWnd@@UEAAJPEAPEAUIDispatch@@@Z 000000018000e388     mfc140:mfc140.dll
 0002:00001390       __imp_?get_accChildCount@CWnd@@UEAAJPEAJ@Z 000000018000e390     mfc140:mfc140.dll
 0002:00001398       __imp_?get_accChild@CWnd@@UEAAJUtagVARIANT@@PEAPEAUIDispatch@@@Z 000000018000e398     mfc140:mfc140.dll
 0002:000013a0       __imp_?get_accName@CWnd@@UEAAJUtagVARIANT@@PEAPEA_W@Z 000000018000e3a0     mfc140:mfc140.dll
 0002:000013a8       __imp_?get_accValue@CWnd@@UEAAJUtagVARIANT@@PEAPEA_W@Z 000000018000e3a8     mfc140:mfc140.dll
 0002:000013b0       __imp_?SetOccDialogInfo@CDialog@@MEAAHPEAU_AFX_OCC_DIALOG_INFO@@@Z 000000018000e3b0     mfc140:mfc140.dll
 0002:000013b8       __imp_?get_accRole@CWnd@@UEAAJUtagVARIANT@@PEAU2@@Z 000000018000e3b8     mfc140:mfc140.dll
 0002:000013c0       __imp_?get_accState@CWnd@@UEAAJUtagVARIANT@@PEAU2@@Z 000000018000e3c0     mfc140:mfc140.dll
 0002:000013c8       __imp_?get_accHelp@CWnd@@UEAAJUtagVARIANT@@PEAPEA_W@Z 000000018000e3c8     mfc140:mfc140.dll
 0002:000013d0       __imp_?get_accHelpTopic@CWnd@@UEAAJPEAPEA_WUtagVARIANT@@PEAJ@Z 000000018000e3d0     mfc140:mfc140.dll
 0002:000013d8       __imp_?Register@CWinApp@@UEAAHXZ 000000018000e3d8     mfc140:mfc140.dll
 0002:000013e0       __imp_?get_accFocus@CWnd@@UEAAJPEAUtagVARIANT@@@Z 000000018000e3e0     mfc140:mfc140.dll
 0002:000013e8       __imp_?get_accSelection@CWnd@@UEAAJPEAUtagVARIANT@@@Z 000000018000e3e8     mfc140:mfc140.dll
 0002:000013f0       __imp_?get_accDefaultAction@CWnd@@UEAAJUtagVARIANT@@PEAPEA_W@Z 000000018000e3f0     mfc140:mfc140.dll
 0002:000013f8       __imp_?accSelect@CWnd@@UEAAJJUtagVARIANT@@@Z 000000018000e3f8     mfc140:mfc140.dll
 0002:00001400       __imp_?accLocation@CWnd@@UEAAJPEAJ000UtagVARIANT@@@Z 000000018000e400     mfc140:mfc140.dll
 0002:00001408       __imp_?accNavigate@CWnd@@UEAAJJUtagVARIANT@@PEAU2@@Z 000000018000e408     mfc140:mfc140.dll
 0002:00001410       __imp_?accHitTest@CWnd@@UEAAJJJPEAUtagVARIANT@@@Z 000000018000e410     mfc140:mfc140.dll
 0002:00001418       __imp_?accDoDefaultAction@CWnd@@UEAAJUtagVARIANT@@@Z 000000018000e418     mfc140:mfc140.dll
 0002:00001420       __imp_?put_accName@CWnd@@UEAAJUtagVARIANT@@PEA_W@Z 000000018000e420     mfc140:mfc140.dll
 0002:00001428       __imp_?put_accValue@CWnd@@UEAAJUtagVARIANT@@PEA_W@Z 000000018000e428     mfc140:mfc140.dll
 0002:00001430       __imp_?SetProxy@CWnd@@UEAAJPEAUIAccessibleProxy@@@Z 000000018000e430     mfc140:mfc140.dll
 0002:00001438       __imp_?CreateAccessibleProxy@CWnd@@UEAAJ_K_JPEA_J@Z 000000018000e438     mfc140:mfc140.dll
 0002:00001440       __imp_?OnCommand@CWnd@@MEAAH_K_J@Z 000000018000e440     mfc140:mfc140.dll
 0002:00001448       __imp_?OnNotify@CWnd@@MEAAH_K_JPEA_J@Z 000000018000e448     mfc140:mfc140.dll
 0002:00001450       __imp_?GetSuperWndProcAddr@CWnd@@MEAAPEAP6A_JPEAUHWND__@@I_K_J@ZXZ 000000018000e450     mfc140:mfc140.dll
 0002:00001458       __imp_?PreTranslateMessage@CWnd@@UEAAHPEAUtagMSG@@@Z 000000018000e458     mfc140:mfc140.dll
 0002:00001460       __imp_?OnAmbientProperty@CWnd@@UEAAHPEAVCOleControlSite@@JPEAUtagVARIANT@@@Z 000000018000e460     mfc140:mfc140.dll
 0002:00001468       __imp_?WindowProc@CWnd@@MEAA_JI_K_J@Z 000000018000e468     mfc140:mfc140.dll
 0002:00001470       __imp_?OnWndMsg@CWnd@@MEAAHI_K_JPEA_J@Z 000000018000e470     mfc140:mfc140.dll
 0002:00001478       __imp_?DefWindowProcA@CWnd@@MEAA_JI_K_J@Z 000000018000e478     mfc140:mfc140.dll
 0002:00001480       __imp_?PostNcDestroy@CWnd@@MEAAXXZ 000000018000e480     mfc140:mfc140.dll
 0002:00001488       __imp_?OnChildNotify@CButton@@MEAAHI_K_JPEA_J@Z 000000018000e488     mfc140:mfc140.dll
 0002:00001490       __imp_?OnTouchInputs@CWnd@@MEAAHIPEAUtagTOUCHINPUT@@@Z 000000018000e490     mfc140:mfc140.dll
 0002:00001498       __imp_?OnTouchInput@CWnd@@MEAAHVCPoint@@HHPEAUtagTOUCHINPUT@@@Z 000000018000e498     mfc140:mfc140.dll
 0002:000014a0       __imp_?GetGestureStatus@CWnd@@MEAAKVCPoint@@@Z 000000018000e4a0     mfc140:mfc140.dll
 0002:000014a8       __imp_?OnGestureZoom@CWnd@@MEAAHVCPoint@@J@Z 000000018000e4a8     mfc140:mfc140.dll
 0002:000014b0       __imp_?OnGesturePan@CWnd@@MEAAHVCPoint@@0@Z 000000018000e4b0     mfc140:mfc140.dll
 0002:000014b8       __imp_?OnGestureRotate@CWnd@@MEAAHVCPoint@@N@Z 000000018000e4b8     mfc140:mfc140.dll
 0002:000014c0       __imp_?OnGestureTwoFingerTap@CWnd@@MEAAHVCPoint@@@Z 000000018000e4c0     mfc140:mfc140.dll
 0002:000014c8       __imp_?OnGesturePressAndTap@CWnd@@MEAAHVCPoint@@J@Z 000000018000e4c8     mfc140:mfc140.dll
 0002:000014d0       __imp_?ResizeDynamicLayout@CWnd@@MEAAXXZ 000000018000e4d0     mfc140:mfc140.dll
 0002:000014d8       __imp_?CheckAutoCenter@CWnd@@UEAAHXZ 000000018000e4d8     mfc140:mfc140.dll
 0002:000014e0       __imp_?IsFrameWnd@CWnd@@UEBAHXZ 000000018000e4e0     mfc140:mfc140.dll
 0002:000014e8       __imp_?CreateControlContainer@CWnd@@MEAAHPEAPEAVCOleControlContainer@@@Z 000000018000e4e8     mfc140:mfc140.dll
 0002:000014f0       __imp_?CreateControlSite@CWnd@@MEAAHPEAVCOleControlContainer@@PEAPEAVCOleControlSite@@IAEBU_GUID@@@Z 000000018000e4f0     mfc140:mfc140.dll
 0002:000014f8       __imp_?SetOccDialogInfo@CWnd@@MEAAHPEAU_AFX_OCC_DIALOG_INFO@@@Z 000000018000e4f8     mfc140:mfc140.dll
 0002:00001500       __imp_?GetOccDialogInfo@CWnd@@MEAAPEAU_AFX_OCC_DIALOG_INFO@@XZ 000000018000e500     mfc140:mfc140.dll
 0002:00001508       __imp_?Create@CButton@@UEAAHPEBDKAEBUtagRECT@@PEAVCWnd@@I@Z 000000018000e508     mfc140:mfc140.dll
 0002:00001510       __imp_?DrawItem@CButton@@UEAAXPEAUtagDRAWITEMSTRUCT@@@Z 000000018000e510     mfc140:mfc140.dll
 0002:00001518       __imp_??2@YAPEAX_K@Z       000000018000e518     mfc140:mfc140.dll
 0002:00001520       __imp_?InitLibId@CWinApp@@UEAAXXZ 000000018000e520     mfc140:mfc140.dll
 0002:00001528       __imp_?WriteProfileBinary@CWinApp@@UEAAHPEBD0PEAEI@Z 000000018000e528     mfc140:mfc140.dll
 0002:00001530       __imp_?GetProfileBinary@CWinApp@@UEAAHPEBD0PEAPEAEPEAI@Z 000000018000e530     mfc140:mfc140.dll
 0002:00001538       __imp_?WriteProfileStringA@CWinApp@@UEAAHPEBD00@Z 000000018000e538     mfc140:mfc140.dll
 0002:00001540       __imp_?GetProfileStringA@CWinApp@@UEAA?AV?$CStringT@DV?$StrTraitMFC_DLL@DV?$ChTraitsCRT@D@ATL@@@@@ATL@@PEBD00@Z 000000018000e540     mfc140:mfc140.dll
 0002:00001548       __imp_?WriteProfileInt@CWinApp@@UEAAHPEBD0H@Z 000000018000e548     mfc140:mfc140.dll
 0002:00001550       __imp_?GetProfileIntA@CWinApp@@UEAAIPEBD0H@Z 000000018000e550     mfc140:mfc140.dll
 0002:00001558       __imp_?Delete@CWinThread@@UEAAXXZ 000000018000e558     mfc140:mfc140.dll
 0002:00001560       __imp_?GetMainWnd@CWinThread@@UEAAPEAVCWnd@@XZ 000000018000e560     mfc140:mfc140.dll
 0002:00001568       __imp_?ProcessMessageFilter@CWinThread@@UEAAHHPEAUtagMSG@@@Z 000000018000e568     mfc140:mfc140.dll
 0002:00001570       __imp_?ProcessWndProcException@CWinApp@@UEAA_JPEAVCException@@PEBUtagMSG@@@Z 000000018000e570     mfc140:mfc140.dll
 0002:00001578       __imp_?GetOccDialogInfo@CDialog@@MEAAPEAU_AFX_OCC_DIALOG_INFO@@XZ 000000018000e578     mfc140:mfc140.dll
 0002:00001580       __imp_?Create@CDialog@@UEAAHPEBDPEAVCWnd@@@Z 000000018000e580     mfc140:mfc140.dll
 0002:00001588       __imp_?CreateIndirect@CDialog@@UEAAHPEAXPEAVCWnd@@@Z 000000018000e588     mfc140:mfc140.dll
 0002:00001590       __imp_?CreateIndirect@CDialog@@UEAAHPEBUDLGTEMPLATE@@PEAVCWnd@@PEAX@Z 000000018000e590     mfc140:mfc140.dll
 0002:00001598       __imp_?OnSetFont@CDialog@@UEAAXPEAVCFont@@@Z 000000018000e598     mfc140:mfc140.dll
 0002:000015a0       __imp_?PreInitDialog@CDialog@@MEAAXXZ 000000018000e5a0     mfc140:mfc140.dll
 0002:000015a8       __imp_??1CWinApp@@UEAA@XZ  000000018000e5a8     mfc140:mfc140.dll
 0002:000015b0       __imp_??0CWinApp@@QEAA@PEBD@Z 000000018000e5b0     mfc140:mfc140.dll
 0002:000015b8       __imp_?InitInstance@CWinApp@@UEAAHXZ 000000018000e5b8     mfc140:mfc140.dll
 0002:000015c0       __imp_?ExitInstance@CWinApp@@UEAAHXZ 000000018000e5c0     mfc140:mfc140.dll
 0002:000015c8       __imp_?GetRuntimeClass@CWnd@@UEBAPEAUCRuntimeClass@@XZ 000000018000e5c8     mfc140:mfc140.dll
 0002:000015d0       __imp_?GetRuntimeClass@CWinApp@@UEBAPEAUCRuntimeClass@@XZ 000000018000e5d0     mfc140:mfc140.dll
 0002:000015d8       __imp_?OnFinalRelease@CCmdTarget@@UEAAXXZ 000000018000e5d8     mfc140:mfc140.dll
 0002:000015e0       __imp_?GetMessageMap@CWinApp@@MEBAPEBUAFX_MSGMAP@@XZ 000000018000e5e0     mfc140:mfc140.dll
 0002:000015e8       __imp_?GetInterfaceMap@CCmdTarget@@MEBAPEBUAFX_INTERFACEMAP@@XZ 000000018000e5e8     mfc140:mfc140.dll
 0002:000015f0       __imp_?Run@CWinApp@@UEAAHXZ 000000018000e5f0     mfc140:mfc140.dll
 0002:000015f8       __imp_?PreTranslateMessage@CWinThread@@UEAAHPEAUtagMSG@@@Z 000000018000e5f8     mfc140:mfc140.dll
 0002:00001600       __imp_?PumpMessage@CWinThread@@UEAAHXZ 000000018000e600     mfc140:mfc140.dll
 0002:00001608       __imp_?LoadSysPolicies@CWinApp@@UEAAHXZ 000000018000e608     mfc140:mfc140.dll
 0002:00001610       __imp_?LoadAppLangResourceDLL@CWinApp@@UEAAPEAUHINSTANCE__@@XZ 000000018000e610     mfc140:mfc140.dll
 0002:00001618       __imp_?RestartInstance@CWinApp@@UEAAHXZ 000000018000e618     mfc140:mfc140.dll
 0002:00001620       __imp_?IsTaskbarInteractionEnabled@CWinApp@@UEAAHXZ 000000018000e620     mfc140:mfc140.dll
 0002:00001628       __imp_?GetDataRecoveryHandler@CWinApp@@UEAAPEAVCDataRecoveryHandler@@XZ 000000018000e628     mfc140:mfc140.dll
 0002:00001630       __imp_?ApplicationRecoveryCallback@CWinApp@@UEAAKPEAX@Z 000000018000e630     mfc140:mfc140.dll
 0002:00001638       __imp_?RegisterWithRestartManager@CWinApp@@UEAAJHAEBV?$CStringT@DV?$StrTraitMFC_DLL@DV?$ChTraitsCRT@D@ATL@@@@@ATL@@@Z 000000018000e638     mfc140:mfc140.dll
 0002:00001640       __imp_?RegisterWithRestartManager@CWinApp@@UEAAJPEB_WKP6AKPEAX@Z1KK@Z 000000018000e640     mfc140:mfc140.dll
 0002:00001648       __imp_?WinHelpInternal@CWinApp@@UEAAX_KI@Z 000000018000e648     mfc140:mfc140.dll
 0002:00001650       __imp_?HtmlHelpA@CWinApp@@UEAAX_KI@Z 000000018000e650     mfc140:mfc140.dll
 0002:00001658       __imp_?WinHelpA@CWinApp@@UEAAX_KI@Z 000000018000e658     mfc140:mfc140.dll
 0002:00001660       __imp_?OnDDECommand@CWinApp@@UEAAHPEAD@Z 000000018000e660     mfc140:mfc140.dll
 0002:00001668       __imp_?DoWaitCursor@CWinApp@@UEAAXH@Z 000000018000e668     mfc140:mfc140.dll
 0002:00001670       __imp_?DoMessageBox@CWinApp@@UEAAHPEBDII@Z 000000018000e670     mfc140:mfc140.dll
 0002:00001678       __imp_?SaveAllModified@CWinApp@@UEAAHXZ 000000018000e678     mfc140:mfc140.dll
 0002:00001680       __imp_?InitApplication@CWinApp@@UEAAHXZ 000000018000e680     mfc140:mfc140.dll
 0002:00001688       __imp_?AddToRecentFileList@CWinApp@@UEAAXPEBD@Z 000000018000e688     mfc140:mfc140.dll
 0002:00001690       __imp_?OpenDocumentFile@CWinApp@@UEAAPEAVCDocument@@PEBD@Z 000000018000e690     mfc140:mfc140.dll
 0002:00001698       __imp_?OpenDocumentFile@CWinApp@@UEAAPEAVCDocument@@PEBDH@Z 000000018000e698     mfc140:mfc140.dll
 0002:000016a0       __imp_?get_accDescription@CWnd@@UEAAJUtagVARIANT@@PEAPEA_W@Z 000000018000e6a0     mfc140:mfc140.dll
 0002:000016a8       __imp_?Unregister@CWinApp@@UEAAHXZ 000000018000e6a8     mfc140:mfc140.dll
 0002:000016b0       __imp_?Delete@CException@@QEAAXXZ 000000018000e6b0     mfc140:mfc140.dll
 0002:000016b8       __imp_??3CNoTrackObject@@SAXPEAX@Z 000000018000e6b8     mfc140:mfc140.dll
 0002:000016c0       __imp_??0AFX_MODULE_STATE@@QEAA@HP6A_JPEAUHWND__@@I_K_J@ZKH@Z 000000018000e6c0     mfc140:mfc140.dll
 0002:000016c8       __imp_??1AFX_MODULE_STATE@@UEAA@XZ 000000018000e6c8     mfc140:mfc140.dll
 0002:000016d0       __imp_?AfxSetModuleState@@YAPEAVAFX_MODULE_STATE@@PEAV1@@Z 000000018000e6d0     mfc140:mfc140.dll
 0002:000016d8       __imp_?AfxGetModuleState@@YAPEAVAFX_MODULE_STATE@@XZ 000000018000e6d8     mfc140:mfc140.dll
 0002:000016e0       __imp_??0AFX_MAINTAIN_STATE2@@QEAA@PEAVAFX_MODULE_STATE@@@Z 000000018000e6e0     mfc140:mfc140.dll
 0002:000016e8       __imp_??1AFX_MAINTAIN_STATE2@@QEAA@XZ 000000018000e6e8     mfc140:mfc140.dll
 0002:000016f0       __imp_?AfxWinInit@@YAHPEAUHINSTANCE__@@0PEADH@Z 000000018000e6f0     mfc140:mfc140.dll
 0002:000016f8       __imp_?AfxWndProc@@YA_JPEAUHWND__@@I_K_J@Z 000000018000e6f8     mfc140:mfc140.dll
 0002:00001700       __imp_?AfxTermThread@@YAXPEAUHINSTANCE__@@@Z 000000018000e700     mfc140:mfc140.dll
 0002:00001708       __imp_?AfxWinTerm@@YAXXZ   000000018000e708     mfc140:mfc140.dll
 0002:00001710       __imp_??0CDynLinkLibrary@@QEAA@AEAUAFX_EXTENSION_MODULE@@H@Z 000000018000e710     mfc140:mfc140.dll
 0002:00001718       __imp_?AfxInitExtensionModule@@YAHAEAUAFX_EXTENSION_MODULE@@PEAUHINSTANCE__@@@Z 000000018000e718     mfc140:mfc140.dll
 0002:00001720       __imp_?AfxTermExtensionModule@@YAXAEAUAFX_EXTENSION_MODULE@@H@Z 000000018000e720     mfc140:mfc140.dll
 0002:00001728       __imp_?AfxCoreInitModule@@YAXXZ 000000018000e728     mfc140:mfc140.dll
 0002:00001730       __imp_?AfxLockTempMaps@@YAXXZ 000000018000e730     mfc140:mfc140.dll
 0002:00001738       __imp_?AfxUnlockTempMaps@@YAHH@Z 000000018000e738     mfc140:mfc140.dll
 0002:00001740       __imp_??3@YAXPEAX@Z        000000018000e740     mfc140:mfc140.dll
 0002:00001748       __imp_?IsIdleMessage@CWinThread@@UEAAHPEAUtagMSG@@@Z 000000018000e748     mfc140:mfc140.dll
 0002:00001750       __imp_?get_accKeyboardShortcut@CWnd@@UEAAJUtagVARIANT@@PEAPEA_W@Z 000000018000e750     mfc140:mfc140.dll
 0002:00001758       __imp_?OnIdle@CWinApp@@UEAAHJ@Z 000000018000e758     mfc140:mfc140.dll
 0002:00001760       \177mfc140_NULL_THUNK_DATA 000000018000e760     mfc140:mfc140.dll
 0002:00001768       __guard_check_icall_fptr   000000018000e768     msvcrt:guard_support.obj
 0002:00001770       __guard_dispatch_icall_fptr 000000018000e770     msvcrt:guard_support.obj
 0002:00001778       __xc_a                     000000018000e778     msvcrt:initializers.obj
 0002:000017a8       __xc_z                     000000018000e7a8     msvcrt:initializers.obj
 0002:000017b0       __xi_a                     000000018000e7b0     msvcrt:initializers.obj
 0002:000017c0       __xi_z                     000000018000e7c0     msvcrt:initializers.obj
 0002:000017c8       __xl_a                     000000018000e7c8     msvcrt:tlssup.obj
 0002:000017d0       __xl_z                     000000018000e7d0     msvcrt:tlssup.obj
 0002:000017d8       __xp_a                     000000018000e7d8     msvcrt:initializers.obj
 0002:000017e0       __xp_z                     000000018000e7e0     msvcrt:initializers.obj
 0002:000017e8       __xt_a                     000000018000e7e8     msvcrt:initializers.obj
 0002:000017f0       __xt_z                     000000018000e7f0     msvcrt:initializers.obj
 0002:00001800       _pActualRawDllMain         000000018000e800     mfcs140:dllmodul.obj
 0002:00001860       ??_7_AFX_DLL_MODULE_STATE@@6B@ 000000018000e860     mfcs140:dllmodul.obj
 0002:00001870       ??_7type_info@@6B@         000000018000e870     msvcrt:std_type_info_static.obj
 0002:00001880       ??_C@_1EC@JIJBPKFM@?$AAa?$AAp?$AAi?$AA?9?$AAm?$AAs?$AA?9?$AAw?$AAi?$AAn?$AA?9?$AAc?$AAo?$AAr?$AAe?$AA?9?$AAs?$AAy?$AAn?$AAc?$AAh?$AA?9?$AAl?$AA1?$AA?9?$AA2?$AA?9?$AA0?$AA?4?$AAd?$AAl?$AAl@ 000000018000e880     msvcrt:thread_safe_statics.obj
 0002:000018c8       ??_C@_1BK@MGMFAEKH@?$AAk?$AAe?$AAr?$AAn?$AAe?$AAl?$AA3?$AA2?$AA?4?$AAd?$AAl?$AAl?$AA?$AA@ 000000018000e8c8     msvcrt:thread_safe_statics.obj
 0002:000018e8       ??_C@_0BM@HLJJNPAH@InitializeConditionVariable?$AA@ 000000018000e8e8     msvcrt:thread_safe_statics.obj
 0002:00001908       ??_C@_0BJ@JEBJOJFJ@SleepConditionVariableCS?$AA@ 000000018000e908     msvcrt:thread_safe_statics.obj
 0002:00001928       ??_C@_0BJ@PGPPEPCC@WakeAllConditionVariable?$AA@ 000000018000e928     msvcrt:thread_safe_statics.obj
 0002:00001948       _pDefaultRawDllMain        000000018000e948     msvcrt:dll_dllmain.obj
 0002:00001960       GUID_ATLVer110             000000018000e960     atls:atlbase.obj
 0002:00001970       ??_C@_1IC@ONKHOIDK@?$AAE?$AAR?$AAR?$AAO?$AAR?$AA?5?$AA?3?$AA?5?$AAU?$AAn?$AAa?$AAb?$AAl?$AAe?$AA?5?$AAt?$AAo?$AA?5?$AAi?$AAn?$AAi?$AAt?$AAi?$AAa?$AAl?$AAi?$AAz?$AAe?$AA?5?$AAc?$AAr?$AAi@ 000000018000e970     atls:atlbase.obj
 0002:00001a20       _pRawDllMain               000000018000ea20     mfcs140:rawdllmainproxy.obj
 0002:00001a28       ??_C@_0CC@HDOCGOJM@Stock?5open?5inside?53?910?$CF?5gap?5rang@ 000000018000ea28     EOH.obj
 0002:00001a50       ??_C@_0CJ@IJDFJGNP@Stock?5do?5not?5open?5inside?53?910?$CF?5g@ 000000018000ea50     EOH.obj
 0002:00001a7c       ??_C@_01IDAFKMJL@_?$AA@    000000018000ea7c     EOH.obj
 0002:00001a80       ??_C@_03DBBHIHBM@EOH?$AA@  000000018000ea80     EOH.obj
 0002:00001a84       ??_C@_06PGDKHFME@Status?$AA@ 000000018000ea84     EOH.obj
 0002:00001a8c       ??_C@_04NBCNICEC@Sts?3?$AA@ 000000018000ea8c     EOH.obj
 0002:00001a94       ??_C@_03BGPLALFI@Run?$AA@  000000018000ea94     EOH.obj
 0002:00001a98       ??_C@_04MOIHHPNJ@Stop?$AA@ 000000018000ea98     EOH.obj
 0002:00001aa0       ??_C@_03EFKKELGE@BAC?$AA@  000000018000eaa0     EOH.obj
 0002:00001aa8       ??_C@_08HPBJPLCJ@Sts?3?5Off?$AA@ 000000018000eaa8     EOH.obj
 0002:00001ab8       ??_C@_0M@LALFPACD@Sts?3?5Active?$AA@ 000000018000eab8     EOH.obj
 0002:00001ac8       ??_C@_0L@ODNFPCJH@output?4txt?$AA@ 000000018000eac8     EOH.obj
 0002:00001ad4       ??_C@_06HHNOBIIB@Notify?$AA@ 000000018000ead4     EOH.obj
 0002:00001ae0       ??_C@_08GAEHCHOH@?$CB?5Notify?$AA@ 000000018000eae0     EOH.obj
 0002:00001af0       ??_C@_0BF@HFPGHIIL@InitializeTickerList?$AA@ 000000018000eaf0     EOH.obj
 0002:00001b08       ??_C@_04LCMACLFG@?4txt?$AA@ 000000018000eb08     EOH.obj
 0002:00001b10       ??_C@_0BH@FHFLONML@?$CB?5InitializeTickerList?$AA@ 000000018000eb10     EOH.obj
 0002:00001b28       ??_C@_0BI@KCEAPELE@InitializeTriggeredList?$AA@ 000000018000eb28     EOH.obj
 0002:00001b40       ??_C@_0BM@CEMMKAGH@security?5in?5position?5struct?$AA@ 000000018000eb40     EOH.obj
 0002:00001b60       ??_C@_0BF@PJIDBJMO@security?5is?5not?5open?$AA@ 000000018000eb60     EOH.obj
 0002:00001b78       ??_C@_0M@DAKBIMAD@empty?5chart?$AA@ 000000018000eb78     EOH.obj
 0002:00001b88       ??_C@_0BF@JGOHKJBF@first?5cpoint?5is?5zero?$AA@ 000000018000eb88     EOH.obj
 0002:00001ba0       ??_C@_0P@GNILGDFD@cpoint?5is?5zero?$AA@ 000000018000eba0     EOH.obj
 0002:00001bb0       ??_C@_0BB@GHFHANGP@set?5trigger?5time?$AA@ 000000018000ebb0     EOH.obj
 0002:00001bc8       ??_C@_0BF@ELHPFABA@already?5time?5?$DO?$DN?59?333?$AA@ 000000018000ebc8     EOH.obj
 0002:00001be0       ??_C@_0BC@BNFEPPLA@set?5risk?5and?5size?$AA@ 000000018000ebe0     EOH.obj
 0002:00001bf8       ??_C@_0BE@PODJLMFE@add?5position?5struct?$AA@ 000000018000ebf8     EOH.obj
 0002:00001c10       ??_C@_0BK@HGILNIFM@?$CB?5InitializeTriggeredList?$AA@ 000000018000ec10     EOH.obj
 0002:00001c30       ??_C@_0M@ILHPHPLJ@CHECK?5LOGIC?$AA@ 000000018000ec30     EOH.obj
 0002:00001c40       ??_C@_07PJHCOAPN@?0?5max?3?5?$AA@ 000000018000ec40     EOH.obj
 0002:00001c48       ??_C@_0BD@JNMBDIAC@First?5candle?5min?3?5?$AA@ 000000018000ec48     EOH.obj
 0002:00001c60       ??_C@_0BL@FHONFENK@First?5candle?5high?5Price?5?$DN?5?$AA@ 000000018000ec60     EOH.obj
 0002:00001c80       ??_C@_0CF@EJGKKEH@sended?5order?5and?5add?5position?5st@ 000000018000ec80     EOH.obj
 0002:00001ca8       ??_C@_0O@MCAEBCEK@?$CB?5CHECK?5LOGIC?$AA@ 000000018000eca8     EOH.obj
 0002:00001cb8       ??_C@_09HIHHMNKL@SendOrder?$AA@ 000000018000ecb8     EOH.obj
 0002:00001cc8       ??_C@_0L@IBMEOAN@STOP?5ORDER?$AA@ 000000018000ecc8     EOH.obj
 0002:00001cd8       ??_C@_0M@OFCAHLPC@?$CB?5SendOrder?$AA@ 000000018000ecd8     EOH.obj
 0002:00001ce8       ??_C@_0BC@HEIMHMJE@GetStructBySymbol?$AA@ 000000018000ece8     EOH.obj
 0002:00001d00       ??_C@_0BF@MFDCECHL@find?5position?5struct?$AA@ 000000018000ed00     EOH.obj
 0002:00001d18       ??_C@_0BE@EFFNDFAN@?$CB?5GetStructBySymbol?$AA@ 000000018000ed18     EOH.obj
 0002:00001d30       ??_C@_0BM@CBMLLIAJ@do?5not?5find?5position?5struct?$AA@ 000000018000ed30     EOH.obj
 0002:00001d50       ??_C@_0O@GMMHBKHA@CheckPosition?$AA@ 000000018000ed50     EOH.obj
 0002:00001d60       ??_C@_0BL@PAEPIMOH@position?5has?5shares?5traded?$AA@ 000000018000ed60     EOH.obj
 0002:00001d80       ??_C@_0BM@GOBPEOBJ@position?5has?5pending?5shares?$AA@ 000000018000ed80     EOH.obj
 0002:00001da0       ??_C@_0CO@ICLACNNB@cancel?5opening?5orders?5cause?5of?5E@ 000000018000eda0     EOH.obj
 0002:00001dd0       ??_C@_0BA@GAFFPMJA@?$CB?5CheckPosition?$AA@ 000000018000edd0     EOH.obj
 0002:00001de0       ??_C@_0BG@MMKLHABB@CheckStopTargetOrders?$AA@ 000000018000ede0     EOH.obj
 0002:00001df8       ??_C@_0BD@CABFHDDO@target?5order?5exist?$AA@ 000000018000edf8     EOH.obj
 0002:00001e10       ??_C@_0BB@JMCHCKKL@stop?5order?5exist?$AA@ 000000018000ee10     EOH.obj
 0002:00001e28       ??_C@_0CH@MMMNIFBK@entry?5order?5exist?5and?5not?5execut@ 000000018000ee28     EOH.obj
 0002:00001e50       ??_C@_0N@LNLBJIP@cancel?5order?$AA@ 000000018000ee50     EOH.obj
 0002:00001e60       ??_C@_0BM@HPDNFKKA@target?5order?5does?5not?5exist?$AA@ 000000018000ee60     EOH.obj
 0002:00001e80       ??_C@_0BK@OHKCNCEJ@stop?5order?5does?5not?5exist?$AA@ 000000018000ee80     EOH.obj
 0002:00001ea0       ??_C@_0BI@LKFFJMBE@?$CB?5CheckStopTargetOrders?$AA@ 000000018000eea0     EOH.obj
 0002:00001eb8       ??_C@_0BN@IOICPDAO@CheckKeepPositionTimeExpired?$AA@ 000000018000eeb8     EOH.obj
 0002:00001ed8       ??_C@_0BP@EGMBGCM@?$CB?5CheckKeepPositionTimeExpired?$AA@ 000000018000eed8     EOH.obj
 0002:00001ef8       ??_C@_0BN@OFPCLOAG@CheckOpenPositionTimeExpired?$AA@ 000000018000eef8     EOH.obj
 0002:00001f18       ??_C@_0BG@NPMFNCMC@cancel?5opening?5orders?$AA@ 000000018000ef18     EOH.obj
 0002:00001f30       ??_C@_0BP@GPBMFLCE@?$CB?5CheckOpenPositionTimeExpired?$AA@ 000000018000ef30     EOH.obj
 0002:00001f50       ??_C@_0BM@MDFKGLEA@CheckIsTargetAlreadyReached?$AA@ 000000018000ef50     EOH.obj
 0002:00001f70       ??_C@_0BM@BKACMDH@chart?5point?5is?5none?5or?5zero?$AA@ 000000018000ef70     EOH.obj
 0002:00001f90       ??_C@_0BO@EIHGKFFL@?$CB?5CheckIsTargetAlreadyReached?$AA@ 000000018000ef90     EOH.obj
 0002:00001fb0       ??_C@_08EPJLHIJG@bad?5cast?$AA@ 000000018000efb0     EOH.obj
 0002:00001fc8       ??_7bad_cast@std@@6B@      000000018000efc8     EOH.obj
 0002:00001fd8       ??_C@_0BC@EOODALEL@Unknown?5exception?$AA@ 000000018000efd8     EOH.obj
 0002:00001ff8       ??_7exception@std@@6B@     000000018000eff8     EOH.obj
 0002:00002010       ??_7?$basic_filebuf@DU?$char_traits@D@std@@@std@@6B@ 000000018000f010     EOH.obj
 0002:00002088       ??_8?$basic_ifstream@DU?$char_traits@D@std@@@std@@7B@ 000000018000f088     EOH.obj
 0002:00002098       ??_7?$basic_ifstream@DU?$char_traits@D@std@@@std@@6B@ 000000018000f098     EOH.obj
 0002:000020a0       ??_8?$basic_ofstream@DU?$char_traits@D@std@@@std@@7B@ 000000018000f0a0     EOH.obj
 0002:000020b0       ??_7?$basic_ofstream@DU?$char_traits@D@std@@@std@@6B@ 000000018000f0b0     EOH.obj
 0002:000020b8       ??_C@_02NJPGOMH@?$CFf?$AA@ 000000018000f0b8     EOH.obj
 0002:00002128       ??_7CStatic@@6B@           000000018000f128     EOH.obj
 0002:00002418       ??_7CButton@@6B@           000000018000f418     EOH.obj
 0002:00002708       ??_7EOH@@6B@               000000018000f708     EOH.obj
 0002:00002720       ??_7EOH@@6BTakionDialogInterface@@@ 000000018000f720     EOH.obj
 0002:00002788       ??_7EOH@@6BCDialog@@@      000000018000f788     EOH.obj
 0002:00002e00       ??_C@_0BD@OLBABOEK@vector?$DMT?$DO?5too?5long?$AA@ 000000018000fe00     EOH.obj
 0002:00002e14       ??_C@_01GBGANLPD@0?$AA@    000000018000fe14     EOH.obj
 0002:00002e18       ??_C@_02LMMGGCAJ@?3?5?$AA@ 000000018000fe18     EOH.obj
 0002:00002e20       ??_C@_0BI@CFPLBAOH@invalid?5string?5position?$AA@ 000000018000fe20     EOH.obj
 0002:00002e38       ??_C@_0BA@JFNIOLAK@string?5too?5long?$AA@ 000000018000fe38     EOH.obj
 0002:00002e48       ??_C@_00CNPNBAHC@?$AA@     000000018000fe48     EOH.obj
 0002:00002e50       ??_C@_0BA@IMCNLELL@RiskRewardRatio?$AA@ 000000018000fe50     ExtensionDerivedConfig.obj
 0002:00002e60       ??_C@_0P@FKLLPNAF@EntryTimeLimit?$AA@ 000000018000fe60     ExtensionDerivedConfig.obj
 0002:00002e70       ??_C@_0BH@EIKNBAHN@KeepPostitionTimeLimit?$AA@ 000000018000fe70     ExtensionDerivedConfig.obj
 0002:00002e88       ??_C@_0BB@NFEAGKKG@TickerListFolder?$AA@ 000000018000fe88     ExtensionDerivedConfig.obj
 0002:00002ea0       ??_C@_0BA@BNIOECCB@UpdateFrequency?$AA@ 000000018000fea0     ExtensionDerivedConfig.obj
 0002:00002eb0       ??_C@_0N@BAFNFNBF@PositionRisk?$AA@ 000000018000feb0     ExtensionDerivedConfig.obj
 0002:00002ec0       ??_C@_07FENCDID@Account?$AA@ 000000018000fec0     ExtensionDerivedConfig.obj
 0002:00002ed0       ??_7ExtensionDerivedConfig@@6B@ 000000018000fed0     ExtensionDerivedConfig.obj
 0002:00002f28       ??_C@_03LCGOKPML@ecg?$AA@  000000018000ff28     ExtensionSample.obj
 0002:00002f2c       ??_C@_05NPMMKAPN@First?$AA@ 000000018000ff2c     ExtensionSample.obj
 0002:00002f34       ??_C@_06NGJIOPAD@Second?$AA@ 000000018000ff34     ExtensionSample.obj
 0002:00002f3c       ??_C@_05GAKKICCF@Third?$AA@ 000000018000ff3c     ExtensionSample.obj
 0002:00002f44       ??_C@_06LCDCPLMG@Fourth?$AA@ 000000018000ff44     ExtensionSample.obj
 0002:00002f4c       ??_C@_04JLAJABDJ@Show?$AA@ 000000018000ff4c     ExtensionSample.obj
 0002:00002f54       ??_C@_04EACEFPPN@Hide?$AA@ 000000018000ff54     ExtensionSample.obj
 0002:00002f5c       ??_C@_06OFCMNDMK@Corner?$AA@ 000000018000ff5c     ExtensionSample.obj
 0002:00002f68       ??_C@_08DJDIMLDE@PopupWnd?$AA@ 000000018000ff68     ExtensionSample.obj
 0002:00002f78       ??_C@_0L@KJAJNDHH@MessageBox?$AA@ 000000018000ff78     ExtensionSample.obj
 0002:00002f88       ??_C@_0BD@ODEBBMBB@Command?51?5executed?$AA@ 000000018000ff88     ExtensionSample.obj
 0002:00002fa0       ??_C@_0BC@IKMPGCFP@Extension?5Command?$AA@ 000000018000ffa0     ExtensionSample.obj
 0002:00002fb8       ??_C@_0BC@JGHHFACJ@Command?52?5checked?$AA@ 000000018000ffb8     ExtensionSample.obj
 0002:00002fd0       ??_C@_0BE@BAELKONO@Command?52?5unchecked?$AA@ 000000018000ffd0     ExtensionSample.obj
 0002:00002fe8       ??_C@_0BD@LLCNKFNA@Command?53?5executed?$AA@ 000000018000ffe8     ExtensionSample.obj
 0002:00003000       ??_C@_0BD@JCBGLAFD@Command?54?5executed?$AA@ 0000000180010000     ExtensionSample.obj
 0002:00003014       ??_C@_04OJAHODMC@Text?$AA@ 0000000180010014     ExtensionSample.obj
 0002:00003020       ??_C@_0BA@FGCFFDPO@TakionExtension?$AA@ 0000000180010020     ExtensionSample.obj
 0002:00003030       ??_C@_0BB@GLGGKAMG@Unknown?5Command?5?$AA@ 0000000180010030     ExtensionSample.obj
 0002:00003048       ??_C@_08NBJLNICC@CheckBox?$AA@ 0000000180010048     ExtensionSample.obj
 0002:00003058       ??_C@_0M@MNPNDAHP@ProductName?$AA@ 0000000180010058     ExtensionSample.obj
 0002:00003064       ??_C@_04BPDHECOE@EOH?4?$AA@ 0000000180010064     ExtensionSample.obj
 0002:00003078       ??_7ExtensionSample@@6B@   0000000180010078     ExtensionSample.obj
 0002:000032b8       ??_STakionMessageBox@@6BCDialog@@@ 00000001800102b8     ExtensionSample.obj
 0002:00003828       ??_STakionPopupWnd@@6B@    0000000180010828     ExtensionSample.obj
 0002:00003e78       ??_C@_08MBDEDNJD@1?40?47?432?$AA@ 0000000180010e78     ExtensionSample.obj
 0002:00003ed8       ??_C@_08NDPEDLFC@1?40?46?451?$AA@ 0000000180010ed8     ExtensionSample.obj
 0002:00003ee8       ??_C@_08MEHLCLBG@1?40?47?442?$AA@ 0000000180010ee8     ExtensionSample.obj
 0002:00003ef8       ??_C@_08MNGBNCHC@1?40?47?482?$AA@ 0000000180010ef8     ExtensionSample.obj
 0002:00003f08       ??_C@_08ONBAMGIM@1?40?47?471?$AA@ 0000000180010f08     ExtensionSample.obj
 0002:00003f18       ??_C@_08KABHOOBC@1?40?47?446?$AA@ 0000000180010f18     ExtensionSample.obj
 0002:00003f38       ??_STakionSettingTabDialog@@6BCDialog@@@ 0000000180010f38     MainDialog.obj
 0002:000045e8       ??_7MainDialog@@6BTakionDialogInterface@@@ 00000001800115e8     MainDialog.obj
 0002:00004650       ??_7MainDialog@@6BCDialog@@@ 0000000180011650     MainDialog.obj
 0002:00005290       __real@3f847ae147ae147b    0000000180012290     EOH.obj
 0002:00005298       __real@3fefae147ae147ae    0000000180012298     EOH.obj
 0002:000052a0       __real@3ff07ae147ae147b    00000001800122a0     EOH.obj
 0002:000052a8       __real@3ff199999999999a    00000001800122a8     EOH.obj
 0002:000052b0       __real@4059000000000000    00000001800122b0     EOH.obj
 0002:000052b8       __real@41cdcd6500000000    00000001800122b8     EOH.obj
 0002:000053d0       _load_config_used          00000001800123d0     msvcrt:loadcfg.obj
 0002:00005470       _tls_used                  0000000180012470     msvcrt:tlssup.obj
 0002:000054a0       ??_R3CNoTrackObject@@8     00000001800124a0     mfcs140:dllmodul.obj
 0002:000054b8       ??_R2CNoTrackObject@@8     00000001800124b8     mfcs140:dllmodul.obj
 0002:000054c8       ??_R1A@?0A@EA@CNoTrackObject@@8 00000001800124c8     mfcs140:dllmodul.obj
 0002:000054f0       ??_R4_AFX_DLL_MODULE_STATE@@6B@ 00000001800124f0     mfcs140:dllmodul.obj
 0002:00005518       ??_R3_AFX_DLL_MODULE_STATE@@8 0000000180012518     mfcs140:dllmodul.obj
 0002:00005530       ??_R2_AFX_DLL_MODULE_STATE@@8 0000000180012530     mfcs140:dllmodul.obj
 0002:00005550       ??_R1A@?0A@EA@_AFX_DLL_MODULE_STATE@@8 0000000180012550     mfcs140:dllmodul.obj
 0002:00005578       ??_R1A@?0A@EA@AFX_MODULE_STATE@@8 0000000180012578     mfcs140:dllmodul.obj
 0002:000055a0       ??_R3AFX_MODULE_STATE@@8   00000001800125a0     mfcs140:dllmodul.obj
 0002:000055b8       ??_R2AFX_MODULE_STATE@@8   00000001800125b8     mfcs140:dllmodul.obj
 0002:000055d0       ??_R4type_info@@6B@        00000001800125d0     msvcrt:std_type_info_static.obj
 0002:000055f8       ??_R3type_info@@8          00000001800125f8     msvcrt:std_type_info_static.obj
 0002:00005610       ??_R2type_info@@8          0000000180012610     msvcrt:std_type_info_static.obj
 0002:00005620       ??_R1A@?0A@EA@type_info@@8 0000000180012620     msvcrt:std_type_info_static.obj
 0002:00005650       ??_R2EOH@@8                0000000180012650     EOH.obj
 0002:000056a8       ??_R2Observer@@8           00000001800126a8     EOH.obj
 0002:000056c0       ??_R2TakionSettingPageBase@@8 00000001800126c0     EOH.obj
 0002:00005708       ??_R2TakionSettingDialog@@8 0000000180012708     EOH.obj
 0002:00005748       ??_R2?$basic_ofstream@DU?$char_traits@D@std@@@std@@8 0000000180012748     EOH.obj
 0002:00005778       ??_R2?$basic_ostream@DU?$char_traits@D@std@@@std@@8 0000000180012778     EOH.obj
 0002:000057a0       ??_R2?$basic_ifstream@DU?$char_traits@D@std@@@std@@8 00000001800127a0     EOH.obj
 0002:000057d0       ??_R2?$basic_istream@DU?$char_traits@D@std@@@std@@8 00000001800127d0     EOH.obj
 0002:000057f8       ??_R2?$basic_ios@DU?$char_traits@D@std@@@std@@8 00000001800127f8     EOH.obj
 0002:00005818       ??_R2ios_base@std@@8       0000000180012818     EOH.obj
 0002:00005830       ??_R2?$_Iosb@H@std@@8      0000000180012830     EOH.obj
 0002:00005840       ??_R2?$basic_filebuf@DU?$char_traits@D@std@@@std@@8 0000000180012840     EOH.obj
 0002:00005858       ??_R2?$basic_streambuf@DU?$char_traits@D@std@@@std@@8 0000000180012858     EOH.obj
 0002:00005868       ??_R1FHI@?0A@EA@Observer@@8 0000000180012868     EOH.obj
 0002:00005890       ??_R1A@?0A@EA@EOH@@8       0000000180012890     EOH.obj
 0002:000058b8       ??_R1A@?0A@EA@Observer@@8  00000001800128b8     EOH.obj
 0002:000058e0       ??_R1A@?0A@EA@TakionSettingPageBase@@8 00000001800128e0     EOH.obj
 0002:00005908       ??_R2CDialog@@8            0000000180012908     EOH.obj
 0002:00005930       ??_R3CDialog@@8            0000000180012930     EOH.obj
 0002:00005948       ??_R1A@?0A@EA@CDialog@@8   0000000180012948     EOH.obj
 0002:00005970       ??_R1A@?0A@EA@TakionDialogInterface@@8 0000000180012970     EOH.obj
 0002:00005998       ??_R2TakionDialogInterface@@8 0000000180012998     EOH.obj
 0002:000059a8       ??_R3TakionDialogInterface@@8 00000001800129a8     EOH.obj
 0002:000059c0       ??_R1BDA@?0A@EA@TakionDialogInterface@@8 00000001800129c0     EOH.obj
 0002:000059e8       ??_R2TakionDialog@@8       00000001800129e8     EOH.obj
 0002:00005a20       ??_R3TakionDialog@@8       0000000180012a20     EOH.obj
 0002:00005a38       ??_R1A@?0A@EA@TakionDialog@@8 0000000180012a38     EOH.obj
 0002:00005a60       ??_R1A@?0A@EA@TakionSettingDialog@@8 0000000180012a60     EOH.obj
 0002:00005a88       ??_R1A@?0A@EA@?$basic_ofstream@DU?$char_traits@D@std@@@std@@8 0000000180012a88     EOH.obj
 0002:00005ab0       ??_R1A@?0A@EA@?$basic_ostream@DU?$char_traits@D@std@@@std@@8 0000000180012ab0     EOH.obj
 0002:00005ad8       ??_R1A@?0A@EA@?$basic_ifstream@DU?$char_traits@D@std@@@std@@8 0000000180012ad8     EOH.obj
 0002:00005b00       ??_R17A@3EA@?$_Iosb@H@std@@8 0000000180012b00     EOH.obj
 0002:00005b28       ??_R1A@A@3EA@ios_base@std@@8 0000000180012b28     EOH.obj
 0002:00005b50       ??_R1A@A@3FA@?$basic_ios@DU?$char_traits@D@std@@@std@@8 0000000180012b50     EOH.obj
 0002:00005b78       ??_R1A@?0A@EA@?$basic_istream@DU?$char_traits@D@std@@@std@@8 0000000180012b78     EOH.obj
 0002:00005ba0       ??_R1A@?0A@EA@?$basic_ios@DU?$char_traits@D@std@@@std@@8 0000000180012ba0     EOH.obj
 0002:00005bc8       ??_R17?0A@EA@?$_Iosb@H@std@@8 0000000180012bc8     EOH.obj
 0002:00005bf0       ??_R1A@?0A@EA@ios_base@std@@8 0000000180012bf0     EOH.obj
 0002:00005c18       ??_R1A@?0A@EA@?$_Iosb@H@std@@8 0000000180012c18     EOH.obj
 0002:00005c40       ??_R1A@?0A@EA@?$basic_filebuf@DU?$char_traits@D@std@@@std@@8 0000000180012c40     EOH.obj
 0002:00005c68       ??_R1A@?0A@EA@?$basic_streambuf@DU?$char_traits@D@std@@@std@@8 0000000180012c68     EOH.obj
 0002:00005c90       ??_R3Observer@@8           0000000180012c90     EOH.obj
 0002:00005ca8       ??_R3TakionSettingPageBase@@8 0000000180012ca8     EOH.obj
 0002:00005cc0       ??_R3TakionSettingDialog@@8 0000000180012cc0     EOH.obj
 0002:00005cd8       ??_R3EOH@@8                0000000180012cd8     EOH.obj
 0002:00005cf0       ??_R3?$basic_ostream@DU?$char_traits@D@std@@@std@@8 0000000180012cf0     EOH.obj
 0002:00005d08       ??_R3?$basic_ofstream@DU?$char_traits@D@std@@@std@@8 0000000180012d08     EOH.obj
 0002:00005d20       ??_R3?$basic_istream@DU?$char_traits@D@std@@@std@@8 0000000180012d20     EOH.obj
 0002:00005d38       ??_R3ios_base@std@@8       0000000180012d38     EOH.obj
 0002:00005d50       ??_R3?$_Iosb@H@std@@8      0000000180012d50     EOH.obj
 0002:00005d68       ??_R3?$basic_ios@DU?$char_traits@D@std@@@std@@8 0000000180012d68     EOH.obj
 0002:00005d80       ??_R3?$basic_ifstream@DU?$char_traits@D@std@@@std@@8 0000000180012d80     EOH.obj
 0002:00005d98       ??_R3?$basic_streambuf@DU?$char_traits@D@std@@@std@@8 0000000180012d98     EOH.obj
 0002:00005db0       ??_R3?$basic_filebuf@DU?$char_traits@D@std@@@std@@8 0000000180012db0     EOH.obj
 0002:00005dc8       ??_R4EOH@@6B@              0000000180012dc8     EOH.obj
 0002:00005df0       ??_R4EOH@@6BTakionDialogInterface@@@ 0000000180012df0     EOH.obj
 0002:00005e18       ??_R4EOH@@6BCDialog@@@     0000000180012e18     EOH.obj
 0002:00005e40       ??_R4?$basic_ofstream@DU?$char_traits@D@std@@@std@@6B@ 0000000180012e40     EOH.obj
 0002:00005e68       ??_R4?$basic_ifstream@DU?$char_traits@D@std@@@std@@6B@ 0000000180012e68     EOH.obj
 0002:00005e90       ??_R4?$basic_filebuf@DU?$char_traits@D@std@@@std@@6B@ 0000000180012e90     EOH.obj
 0002:00005eb8       ??_R1A@?0A@EA@bad_cast@std@@8 0000000180012eb8     EOH.obj
 0002:00005ee0       ??_R2bad_cast@std@@8       0000000180012ee0     EOH.obj
 0002:00005ef8       ??_R3bad_cast@std@@8       0000000180012ef8     EOH.obj
 0002:00005f10       ??_R4bad_cast@std@@6B@     0000000180012f10     EOH.obj
 0002:00005f38       ??_R1A@?0A@EA@exception@std@@8 0000000180012f38     EOH.obj
 0002:00005f60       ??_R2exception@std@@8      0000000180012f60     EOH.obj
 0002:00005f70       ??_R3exception@std@@8      0000000180012f70     EOH.obj
 0002:00005f88       ??_R4exception@std@@6B@    0000000180012f88     EOH.obj
 0002:00005fb0       ??_R1A@?0A@EA@CStatic@@8   0000000180012fb0     EOH.obj
 0002:00005fd8       ??_R2CStatic@@8            0000000180012fd8     EOH.obj
 0002:00006000       ??_R3CStatic@@8            0000000180013000     EOH.obj
 0002:00006018       ??_R4CStatic@@6B@          0000000180013018     EOH.obj
 0002:00006040       ??_R1A@?0A@EA@CButton@@8   0000000180013040     EOH.obj
 0002:00006068       ??_R2CWnd@@8               0000000180013068     EOH.obj
 0002:00006088       ??_R3CWnd@@8               0000000180013088     EOH.obj
 0002:000060a0       ??_R1A@?0A@EA@CWnd@@8      00000001800130a0     EOH.obj
 0002:000060c8       ??_R2CCmdTarget@@8         00000001800130c8     EOH.obj
 0002:000060e0       ??_R3CCmdTarget@@8         00000001800130e0     EOH.obj
 0002:000060f8       ??_R1A@?0A@EA@CCmdTarget@@8 00000001800130f8     EOH.obj
 0002:00006120       ??_R2CObject@@8            0000000180013120     EOH.obj
 0002:00006130       ??_R3CObject@@8            0000000180013130     EOH.obj
 0002:00006148       ??_R1A@?0A@EA@CObject@@8   0000000180013148     EOH.obj
 0002:00006170       ??_R2CButton@@8            0000000180013170     EOH.obj
 0002:00006198       ??_R3CButton@@8            0000000180013198     EOH.obj
 0002:000061b0       ??_R4CButton@@6B@          00000001800131b0     EOH.obj
 0002:000061d8       ??_R2ExtensionDerivedConfig@@8 00000001800131d8     ExtensionDerivedConfig.obj
 0002:000061f8       ??_R2ExtensionConfig@@8    00000001800131f8     ExtensionDerivedConfig.obj
 0002:00006210       ??_R2ConfigBase@@8         0000000180013210     ExtensionDerivedConfig.obj
 0002:00006220       ??_R1A@?0A@EA@ExtensionDerivedConfig@@8 0000000180013220     ExtensionDerivedConfig.obj
 0002:00006248       ??_R1A@?0A@EA@ExtensionConfig@@8 0000000180013248     ExtensionDerivedConfig.obj
 0002:00006270       ??_R1A@?0A@EA@ConfigBase@@8 0000000180013270     ExtensionDerivedConfig.obj
 0002:00006298       ??_R3ExtensionConfig@@8    0000000180013298     ExtensionDerivedConfig.obj
 0002:000062b0       ??_R3ConfigBase@@8         00000001800132b0     ExtensionDerivedConfig.obj
 0002:000062c8       ??_R3ExtensionDerivedConfig@@8 00000001800132c8     ExtensionDerivedConfig.obj
 0002:000062e0       ??_R4ExtensionDerivedConfig@@6B@ 00000001800132e0     ExtensionDerivedConfig.obj
 0002:00006308       ??_R2ExtensionSample@@8    0000000180013308     ExtensionSample.obj
 0002:00006338       ??_R2CWinApp@@8            0000000180013338     ExtensionSample.obj
 0002:00006360       ??_R2CWinThread@@8         0000000180013360     ExtensionSample.obj
 0002:00006380       ??_R2TakionPopupWnd@@8     0000000180013380     ExtensionSample.obj
 0002:000063b8       ??_R2TakionFrame@@8        00000001800133b8     ExtensionSample.obj
 0002:000063e8       ??_R2TakionBaseWnd@@8      00000001800133e8     ExtensionSample.obj
 0002:00006410       ??_R2TakionMessageBox@@8   0000000180013410     ExtensionSample.obj
 0002:00006458       ??_R2ColoredDraggableDialog@@8 0000000180013458     ExtensionSample.obj
 0002:00006498       ??_R1A@?0A@EA@ExtensionSample@@8 0000000180013498     ExtensionSample.obj
 0002:000064c0       ??_R1A@?0A@EA@CWinApp@@8   00000001800134c0     ExtensionSample.obj
 0002:000064e8       ??_R1A@?0A@EA@CWinThread@@8 00000001800134e8     ExtensionSample.obj
 0002:00006510       ??_R1A@?0A@EA@TakionPopupWnd@@8 0000000180013510     ExtensionSample.obj
 0002:00006538       ??_R1A@?0A@EA@TakionFrame@@8 0000000180013538     ExtensionSample.obj
 0002:00006560       ??_R1A@?0A@EA@TakionBaseWnd@@8 0000000180013560     ExtensionSample.obj
 0002:00006588       ??_R1A@?0A@EA@TakionMessageBox@@8 0000000180013588     ExtensionSample.obj
 0002:000065b0       ??_R1A@?0A@EA@ColoredDraggableDialog@@8 00000001800135b0     ExtensionSample.obj
 0002:000065d8       ??_R3CWinApp@@8            00000001800135d8     ExtensionSample.obj
 0002:000065f0       ??_R3CWinThread@@8         00000001800135f0     ExtensionSample.obj
 0002:00006608       ??_R3ExtensionSample@@8    0000000180013608     ExtensionSample.obj
 0002:00006620       ??_R3TakionFrame@@8        0000000180013620     ExtensionSample.obj
 0002:00006638       ??_R3TakionBaseWnd@@8      0000000180013638     ExtensionSample.obj
 0002:00006650       ??_R3TakionPopupWnd@@8     0000000180013650     ExtensionSample.obj
 0002:00006668       ??_R3ColoredDraggableDialog@@8 0000000180013668     ExtensionSample.obj
 0002:00006680       ??_R3TakionMessageBox@@8   0000000180013680     ExtensionSample.obj
 0002:00006698       ??_R4ExtensionSample@@6B@  0000000180013698     ExtensionSample.obj
 0002:000066c0       ??_R4TakionPopupWnd@@6B@   00000001800136c0     ExtensionSample.obj
 0002:000066e8       ??_R4TakionMessageBox@@6BCDialog@@@ 00000001800136e8     ExtensionSample.obj
 0002:00006710       ??_R2MainDialog@@8         0000000180013710     MainDialog.obj
 0002:00006780       ??_R2ExtensionMainDialog@@8 0000000180013780     MainDialog.obj
 0002:000067e0       ??_R2ExtensionMainDialogBase@@8 00000001800137e0     MainDialog.obj
 0002:00006840       ??_R2TakionSettingTopDialog@@8 0000000180013840     MainDialog.obj
 0002:00006890       ??_R2TakionSettingTabDialog@@8 0000000180013890     MainDialog.obj
 0002:000068d8       ??_R1A@?0A@EA@MainDialog@@8 00000001800138d8     MainDialog.obj
 0002:00006900       ??_R1A@?0A@EA@ExtensionMainDialog@@8 0000000180013900     MainDialog.obj
 0002:00006928       ??_R1A@?0A@EA@ExtensionMainDialogBase@@8 0000000180013928     MainDialog.obj
 0002:00006950       ??_R1A@?0A@EA@TakionSettingTopDialog@@8 0000000180013950     MainDialog.obj
 0002:00006978       ??_R1A@?0A@EA@TakionSettingTabDialog@@8 0000000180013978     MainDialog.obj
 0002:000069a0       ??_R3ExtensionMainDialog@@8 00000001800139a0     MainDialog.obj
 0002:000069b8       ??_R3ExtensionMainDialogBase@@8 00000001800139b8     MainDialog.obj
 0002:000069d0       ??_R3TakionSettingTopDialog@@8 00000001800139d0     MainDialog.obj
 0002:000069e8       ??_R3MainDialog@@8         00000001800139e8     MainDialog.obj
 0002:00006a00       ??_R3TakionSettingTabDialog@@8 0000000180013a00     MainDialog.obj
 0002:00006a18       ??_R4MainDialog@@6BTakionDialogInterface@@@ 0000000180013a18     MainDialog.obj
 0002:00006a40       ??_R4MainDialog@@6BCDialog@@@ 0000000180013a40     MainDialog.obj
 0002:00006a68       ??_R4TakionSettingTabDialog@@6BCDialog@@@ 0000000180013a68     MainDialog.obj
 0002:00006dd8       __rtc_iaa                  0000000180013dd8     msvcrt:_initsect_.obj
 0002:00006de0       __rtc_izz                  0000000180013de0     msvcrt:_initsect_.obj
 0002:00006de8       __rtc_taa                  0000000180013de8     msvcrt:_initsect_.obj
 0002:00006df0       __rtc_tzz                  0000000180013df0     msvcrt:_initsect_.obj
 0002:000083d8       _CT??_R0?AVbad_cast@std@@@8??0bad_cast@std@@QEAA@AEBV01@@Z24 00000001800153d8     EOH.obj
 0002:00008400       _CTA2?AVbad_cast@std@@     0000000180015400     EOH.obj
 0002:00008418       _TI2?AVbad_cast@std@@      0000000180015418     EOH.obj
 0002:00008438       _CT??_R0?AVexception@std@@@8??0exception@std@@QEAA@AEBV01@@Z24 0000000180015438     EOH.obj
 0002:00008ac8       __IMPORT_DESCRIPTOR_Observer 0000000180015ac8     Observer:Observer.dll
 0002:00008adc       __IMPORT_DESCRIPTOR_TakionData 0000000180015adc     TakionData:TakionData.dll
 0002:00008af0       __IMPORT_DESCRIPTOR_UtilsGui 0000000180015af0     UtilsGui:UtilsGui.dll
 0002:00008b04       __IMPORT_DESCRIPTOR_TakionGui 0000000180015b04     TakionGui:TakionGui.dll
 0002:00008b18       __IMPORT_DESCRIPTOR_TakionLog 0000000180015b18     TakionLog:TakionLog.dll
 0002:00008b2c       __IMPORT_DESCRIPTOR_TakionUtils 0000000180015b2c     TakionUtils:TakionUtils.dll
 0002:00008b40       __IMPORT_DESCRIPTOR_Utils  0000000180015b40     Utils:Utils.dll
 0002:00008b54       __IMPORT_DESCRIPTOR_mfc140 0000000180015b54     mfc140:mfc140.dll
 0002:00008b68       __IMPORT_DESCRIPTOR_KERNEL32 0000000180015b68     kernel32:KERNEL32.dll
 0002:00008b7c       __IMPORT_DESCRIPTOR_USER32 0000000180015b7c     user32:USER32.dll
 0002:00008b90       __IMPORT_DESCRIPTOR_MSVCP140 0000000180015b90     msvcprt:MSVCP140.dll
 0002:00008ba4       __IMPORT_DESCRIPTOR_VCRUNTIME140 0000000180015ba4     vcruntime:VCRUNTIME140.dll
 0002:00008bb8       __IMPORT_DESCRIPTOR_api-ms-win-crt-stdio-l1-1-0 0000000180015bb8     ucrt:api-ms-win-crt-stdio-l1-1-0.dll
 0002:00008bcc       __IMPORT_DESCRIPTOR_api-ms-win-crt-runtime-l1-1-0 0000000180015bcc     ucrt:api-ms-win-crt-runtime-l1-1-0.dll
 0002:00008be0       __IMPORT_DESCRIPTOR_api-ms-win-crt-filesystem-l1-1-0 0000000180015be0     ucrt:api-ms-win-crt-filesystem-l1-1-0.dll
 0002:00008bf4       __IMPORT_DESCRIPTOR_api-ms-win-crt-string-l1-1-0 0000000180015bf4     ucrt:api-ms-win-crt-string-l1-1-0.dll
 0002:00008c08       __IMPORT_DESCRIPTOR_api-ms-win-crt-heap-l1-1-0 0000000180015c08     ucrt:api-ms-win-crt-heap-l1-1-0.dll
 0002:00008c1c       __NULL_IMPORT_DESCRIPTOR   0000000180015c1c     Observer:Observer.dll
 0003:00000000       __scrt_native_dllmain_reason 000000018001e000     msvcrt:utility.obj
 0003:00000004       _Init_global_epoch         000000018001e004     msvcrt:thread_safe_statics.obj
 0003:00000008       __security_cookie_complement 000000018001e008     msvcrt:gs_cookie.obj
 0003:00000010       __security_cookie          000000018001e010     msvcrt:gs_cookie.obj
 0003:00000018       __memcpy_nt_iters          000000018001e018     msvcrt:_cpu_disp_.obj
 0003:00000020       __isa_available            000000018001e020     msvcrt:_cpu_disp_.obj
 0003:00000024       __isa_enabled              000000018001e024     msvcrt:_cpu_disp_.obj
 0003:00000030       __scrt_ucrt_dll_is_in_use  000000018001e030     msvcrt:ucrt_stubs.obj
 0003:00000038       _fltused                   000000018001e038     msvcrt:fltused.obj
 0003:00000040       ??_R0PEAVCMemoryException@@@8 000000018001e040     mfcs140:dllmodul.obj
 0003:00000068       ??_R0?AVCNoTrackObject@@@8 000000018001e068     mfcs140:dllmodul.obj
 0003:00000090       ??_R0?AV_AFX_DLL_MODULE_STATE@@@8 000000018001e090     mfcs140:dllmodul.obj
 0003:000000c0       ??_R0?AVAFX_MODULE_STATE@@@8 000000018001e0c0     mfcs140:dllmodul.obj
 0003:000000e8       ??_R0?AVtype_info@@@8      000000018001e0e8     msvcrt:std_type_info_static.obj
 0003:00000108       ??_R0?AVTakionDialog@@@8   000000018001e108     EOH.obj
 0003:00000130       ??_R0?AVCDialog@@@8        000000018001e130     EOH.obj
 0003:00000150       ??_R0?AVTakionDialogInterface@@@8 000000018001e150     EOH.obj
 0003:00000180       ??_R0?AVObserver@@@8       000000018001e180     EOH.obj
 0003:000001a0       ??_R0?AVTakionSettingPageBase@@@8 000000018001e1a0     EOH.obj
 0003:000001d0       ??_R0?AVTakionSettingDialog@@@8 000000018001e1d0     EOH.obj
 0003:00000200       ??_R0?AVEOH@@@8            000000018001e200     EOH.obj
 0003:00000220       ??_R0?AV?$basic_ostream@DU?$char_traits@D@std@@@std@@@8 000000018001e220     EOH.obj
 0003:00000270       ??_R0?AV?$basic_ofstream@DU?$char_traits@D@std@@@std@@@8 000000018001e270     EOH.obj
 0003:000002c0       ??_R0?AV?$basic_istream@DU?$char_traits@D@std@@@std@@@8 000000018001e2c0     EOH.obj
 0003:00000308       ??_R0?AVios_base@std@@@8   000000018001e308     EOH.obj
 0003:00000330       ??_R0?AV?$_Iosb@H@std@@@8  000000018001e330     EOH.obj
 0003:00000358       ??_R0?AV?$basic_ios@DU?$char_traits@D@std@@@std@@@8 000000018001e358     EOH.obj
 0003:000003a0       ??_R0?AV?$basic_ifstream@DU?$char_traits@D@std@@@std@@@8 000000018001e3a0     EOH.obj
 0003:000003f0       ??_R0?AV?$basic_streambuf@DU?$char_traits@D@std@@@std@@@8 000000018001e3f0     EOH.obj
 0003:00000440       ??_R0?AV?$basic_filebuf@DU?$char_traits@D@std@@@std@@@8 000000018001e440     EOH.obj
 0003:00000488       ??_R0?AVbad_cast@std@@@8   000000018001e488     EOH.obj
 0003:000004b0       ??_R0?AVexception@std@@@8  000000018001e4b0     EOH.obj
 0003:000004d8       ??_R0?AVCStatic@@@8        000000018001e4d8     EOH.obj
 0003:000004f8       ??_R0?AVCButton@@@8        000000018001e4f8     EOH.obj
 0003:00000518       ??_R0?AVCWnd@@@8           000000018001e518     EOH.obj
 0003:00000538       ??_R0?AVCCmdTarget@@@8     000000018001e538     EOH.obj
 0003:00000560       ??_R0?AVCObject@@@8        000000018001e560     EOH.obj
 0003:00000580       ??_R0?AVExtensionConfig@@@8 000000018001e580     ExtensionDerivedConfig.obj
 0003:000005a8       ??_R0?AVConfigBase@@@8     000000018001e5a8     ExtensionDerivedConfig.obj
 0003:000005d0       ??_R0?AVExtensionDerivedConfig@@@8 000000018001e5d0     ExtensionDerivedConfig.obj
 0003:00000600       ??_R0?AVCWinApp@@@8        000000018001e600     ExtensionSample.obj
 0003:00000620       ??_R0?AVCWinThread@@@8     000000018001e620     ExtensionSample.obj
 0003:00000648       ??_R0?AVExtensionSample@@@8 000000018001e648     ExtensionSample.obj
 0003:00000670       ??_R0?AVTakionFrame@@@8    000000018001e670     ExtensionSample.obj
 0003:00000698       ??_R0?AVTakionBaseWnd@@@8  000000018001e698     ExtensionSample.obj
 0003:000006c0       ??_R0?AVTakionPopupWnd@@@8 000000018001e6c0     ExtensionSample.obj
 0003:000006e8       ??_R0?AVColoredDraggableDialog@@@8 000000018001e6e8     ExtensionSample.obj
 0003:00000718       ??_R0?AVTakionMessageBox@@@8 000000018001e718     ExtensionSample.obj
 0003:00000740       ??_R0?AVExtensionMainDialog@@@8 000000018001e740     MainDialog.obj
 0003:00000770       ??_R0?AVExtensionMainDialogBase@@@8 000000018001e770     MainDialog.obj
 0003:000007a0       ??_R0?AVTakionSettingTopDialog@@@8 000000018001e7a0     MainDialog.obj
 0003:000007d0       ??_R0?AVMainDialog@@@8     000000018001e7d0     MainDialog.obj
 0003:000007f8       ??_R0?AVTakionSettingTabDialog@@@8 000000018001e7f8     MainDialog.obj
 0003:00000830       __afxForceEXCLUDE          000000018001e830     mfcs140:nolib.obj
 0003:00000840       __afxForceUSRDLL           000000018001e840     mfcs140:dllmodul.obj
 0003:00000988       ?__mixedModuleStartup@@3HA 000000018001e988     mfcs140:dllmodul.obj
 0003:0000098c       __afxForceSTDAFX           000000018001e98c     mfcs140:stdafx.obj
 0003:00000990       __scrt_current_native_startup_state 000000018001e990     msvcrt:utility.obj
 0003:00000998       __scrt_native_startup_lock 000000018001e998     msvcrt:utility.obj
 0003:00000a24       _tls_index                 000000018001ea24     msvcrt:tlssup.obj
 0003:00000fa0       __favor                    000000018001efa0     msvcrt:_cpu_disp_.obj
 0003:00000fa4       __scrt_debugger_hook_flag  000000018001efa4     msvcrt:utility_desktop.obj
 0003:00000fb0       ?__type_info_root_node@@3U__type_info_node@@A 000000018001efb0     msvcrt:tncleanup.obj
 0003:00000fc0       ?_OptionsStorage@?1??__local_stdio_scanf_options@@9@4_KA 000000018001efc0     msvcrt:default_local_stdio_options.obj
 0003:00000fd0       ?_AtlBaseModule@ATL@@3VCAtlBaseModule@1@A 000000018001efd0     atls:atlbase.obj
 0003:00001030       __@@_PchSym_@00@UyrmzirvhUrmgvinvwrzgvUexgllohUzgohOmzgrevkilqPBACIAJCBDBUlyqiUznwGEUhgwzucOlyq@4B2008FD98C1DD4 000000018001f030     atls:stdafx.obj
 0003:00001048       ?_Psave@?$_Facetptr@V?$codecvt@DDU_Mbstatet@@@std@@@std@@2PEBVfacet@locale@2@EB 000000018001f048     EOH.obj
 0003:00001050       ?_OptionsStorage@?1??__local_stdio_printf_options@@9@4_KA 000000018001f050     EOH.obj
 0003:00001070       ?extensionConfig@@3PEAVExtensionDerivedConfig@@EA 000000018001f070     ExtensionSample.obj
 0003:00001078       ?mainDialog@@3PEAVMainDialog@@EA 000000018001f078     ExtensionSample.obj
 0003:00001080       ?messageBox@@3PEAVTakionMessageBox@@EA 000000018001f080     ExtensionSample.obj
 0003:00001088       ?messageWnd@@3PEAVTakionPopupWnd@@EA 000000018001f088     ExtensionSample.obj
 0003:00001090       ?outFile@@3V?$basic_ofstream@DU?$char_traits@D@std@@@std@@A 000000018001f090     EOH.obj
 0003:000011a0       ?theApp@@3VExtensionSample@@A 000000018001f1a0     ExtensionSample.obj
 0003:00001420       __@@_PchSym_@00@UfhvihUfhviUwlxfnvmghUerhfzoLhgfwrlLCABHUkilqvxghUvcgvmhrlmlfgkfgUcGEUivovzhvUvcgvmhrlmhznkovUhgwzucOlyq@4B2008FD98C1DD4 000000018001f420     stdafx.obj
 0003:00001424       ?m_bInitFailed@CAtlBaseModule@ATL@@2_NA 000000018001f424     stdafx.obj
 0003:00001450       ?_Stinit@?1??_Init@?$basic_filebuf@DU?$char_traits@D@std@@@std@@IEAAXPEAU_iobuf@@W4_Initfl@23@@Z@4U_Mbstatet@@A 000000018001f450     EOH.obj
 0003:00001458       __dyn_tls_init_callback    000000018001f458     <common>
 0005:00000000       _tls_start                 0000000180021000     msvcrt:tlssup.obj
 0005:00000004       _Init_thread_epoch         0000000180021004     msvcrt:thread_safe_statics.obj
 0005:00000008       _tls_end                   0000000180021008     msvcrt:tlssup.obj

 entry point at        0001:0000a314

 Static symbols

 0002:ffff3000       .idata$6                   0000000180000000     oleaut32:OLEAUT32.dll
 0002:ffff3000       .idata$6                   0000000180000000     ucrt:api-ms-win-crt-convert-l1-1-0.dll
 0001:00000000       ??__EoutFile@@YAXXZ        0000000180001000 f   EOH.obj
 0001:00000020       ??__EtheApp@@YAXXZ         0000000180001020 f   ExtensionSample.obj
 0001:0000003c       ??__EafxModuleState@@YAXXZ 000000018000103c f   mfcs140:dllmodul.obj
 0001:00000084       ??__E_AtlBaseModule@ATL@@YAXXZ 0000000180001084 f   atls:atlbase.obj
 0001:000000a4       ??__E_Fac_tidy_reg@std@@YAXXZ 00000001800010a4 f   msvcprt:locale0_implib.obj
 0001:00007d88       $LN77                      0000000180008d88     ExtensionSample.obj
 0001:00009850       $$000000                   000000018000a850     msvcrt:_amdsecgs_.obj
 0001:00009ca8       ?__scrt_initialize_thread_safe_statics@@YAHXZ 000000018000aca8 f   msvcrt:thread_safe_statics.obj
 0001:00009df4       ?__scrt_uninitialize_thread_safe_statics@@YAXXZ 000000018000adf4 f   msvcrt:thread_safe_statics.obj
 0001:00009fd8       ?dllmain_crt_dispatch@@YAHQEAUHINSTANCE__@@KQEAX@Z 000000018000afd8 f   msvcrt:dll_dllmain.obj
 0001:0000a028       ?dllmain_crt_process_attach@@YAHQEAUHINSTANCE__@@QEAX@Z 000000018000b028 f   msvcrt:dll_dllmain.obj
 0001:0000a13c       ?dllmain_crt_process_detach@@YAH_N@Z 000000018000b13c f   msvcrt:dll_dllmain.obj
 0001:0000a1c8       ?dllmain_dispatch@@YAHQEAUHINSTANCE__@@KQEAX@Z 000000018000b1c8 f   msvcrt:dll_dllmain.obj
 0001:0000a2c0       ?dllmain_raw@@YAHQEAUHINSTANCE__@@KQEAX@Z 000000018000b2c0 f   msvcrt:dll_dllmain.obj
 0001:0000a464       capture_previous_context   000000018000b464 f   msvcrt:gs_report.obj
 0001:0000ace8       _IsNonwritableInCurrentImage 000000018000bce8 f   mfcs140:rawdllmainproxy.obj
 0001:0000ae20       $$000000                   000000018000be20     msvcrt:_guard_dispatch_.obj
 0001:0000ae40       ?dtor$0@?0??WriteToTechLogFile@@YAXV?$basic_string@DU?$char_traits@D@std@@V?$allocator@D@2@@std@@@Z@4HA 000000018000be40 f   EOH.obj
 0001:0000ae4c       ?dtor$1@?0??WriteToTechLogFile@@YAXV?$basic_string@DU?$char_traits@D@std@@V?$allocator@D@2@@std@@@Z@4HA 000000018000be4c f   EOH.obj
 0001:0000ae60       ?dtor$0@?0??GetCurrentDate@@YA?AV?$basic_string@DU?$char_traits@D@std@@V?$allocator@D@2@@std@@XZ@4HA 000000018000be60 f   EOH.obj
 0001:0000ae89       ?dtor$1@?0??GetCurrentDate@@YA?AV?$basic_string@DU?$char_traits@D@std@@V?$allocator@D@2@@std@@XZ@4HA 000000018000be89 f   EOH.obj
 0001:0000aeb2       ?dtor$2@?0??GetCurrentDate@@YA?AV?$basic_string@DU?$char_traits@D@std@@V?$allocator@D@2@@std@@XZ@4HA 000000018000beb2 f   EOH.obj
 0001:0000aedb       ?dtor$3@?0??GetCurrentDate@@YA?AV?$basic_string@DU?$char_traits@D@std@@V?$allocator@D@2@@std@@XZ@4HA 000000018000bedb f   EOH.obj
 0001:0000af01       ?dtor$5@?0??GetCurrentDate@@YA?AV?$basic_string@DU?$char_traits@D@std@@V?$allocator@D@2@@std@@XZ@4HA 000000018000bf01 f   EOH.obj
 0001:0000af27       ?dtor$6@?0??GetCurrentDate@@YA?AV?$basic_string@DU?$char_traits@D@std@@V?$allocator@D@2@@std@@XZ@4HA 000000018000bf27 f   EOH.obj
 0001:0000af4d       ?dtor$7@?0??GetCurrentDate@@YA?AV?$basic_string@DU?$char_traits@D@std@@V?$allocator@D@2@@std@@XZ@4HA 000000018000bf4d f   EOH.obj
 0001:0000af7b       ?dtor$8@?0??GetCurrentDate@@YA?AV?$basic_string@DU?$char_traits@D@std@@V?$allocator@D@2@@std@@XZ@4HA 000000018000bf7b f   EOH.obj
 0001:0000afa9       ?dtor$9@?0??GetCurrentDate@@YA?AV?$basic_string@DU?$char_traits@D@std@@V?$allocator@D@2@@std@@XZ@4HA 000000018000bfa9 f   EOH.obj
 0001:0000afd7       ?dtor$10@?0??GetCurrentDate@@YA?AV?$basic_string@DU?$char_traits@D@std@@V?$allocator@D@2@@std@@XZ@4HA 000000018000bfd7 f   EOH.obj
 0001:0000b005       ?dtor$11@?0??GetCurrentDate@@YA?AV?$basic_string@DU?$char_traits@D@std@@V?$allocator@D@2@@std@@XZ@4HA 000000018000c005 f   EOH.obj
 0001:0000b020       ?dtor$0@?0???0EOH@@QEAA@PEAVTakionMainWnd@@PEAVTakionSettingTabDialog@@@Z@4HA 000000018000c020 f   EOH.obj
 0001:0000b02e       ?dtor$1@?0???0EOH@@QEAA@PEAVTakionMainWnd@@PEAVTakionSettingTabDialog@@@Z@4HA 000000018000c02e f   EOH.obj
 0001:0000b043       ?dtor$2@?0???0EOH@@QEAA@PEAVTakionMainWnd@@PEAVTakionSettingTabDialog@@@Z@4HA 000000018000c043 f   EOH.obj
 0001:0000b058       ?dtor$3@?0???0EOH@@QEAA@PEAVTakionMainWnd@@PEAVTakionSettingTabDialog@@@Z@4HA 000000018000c058 f   EOH.obj
 0001:0000b06d       ?dtor$4@?0???0EOH@@QEAA@PEAVTakionMainWnd@@PEAVTakionSettingTabDialog@@@Z@4HA 000000018000c06d f   EOH.obj
 0001:0000b082       ?dtor$5@?0???0EOH@@QEAA@PEAVTakionMainWnd@@PEAVTakionSettingTabDialog@@@Z@4HA 000000018000c082 f   EOH.obj
 0001:0000b095       ?dtor$6@?0???0EOH@@QEAA@PEAVTakionMainWnd@@PEAVTakionSettingTabDialog@@@Z@4HA 000000018000c095 f   EOH.obj
 0001:0000b0a8       ?dtor$7@?0???0EOH@@QEAA@PEAVTakionMainWnd@@PEAVTakionSettingTabDialog@@@Z@4HA 000000018000c0a8 f   EOH.obj
 0001:0000b0c0       ?dtor$0@?0??Notify@EOH@@MEAAXPEBVMessage@@PEBVObservable@@0@Z@4HA 000000018000c0c0 f   EOH.obj
 0001:0000b0d0       ?dtor$1@?0??InitializeTickerList@EOH@@IEAAXXZ@4HA 000000018000c0d0 f   EOH.obj
 0001:0000b0dc       ?dtor$2@?0??InitializeTickerList@EOH@@IEAAXXZ@4HA 000000018000c0dc f   EOH.obj
 0001:0000b0e8       ?dtor$3@?0??InitializeTickerList@EOH@@IEAAXXZ@4HA 000000018000c0e8 f   EOH.obj
 0001:0000b0f4       ?dtor$4@?0??InitializeTickerList@EOH@@IEAAXXZ@4HA 000000018000c0f4 f   EOH.obj
 0001:0000b100       ?dtor$5@?0??InitializeTickerList@EOH@@IEAAXXZ@4HA 000000018000c100 f   EOH.obj
 0001:0000b110       ?dtor$2@?0??InitializeTriggeredList@EOH@@IEAAXXZ@4HA 000000018000c110 f   EOH.obj
 0001:0000b11c       ?dtor$13@?0??InitializeTriggeredList@EOH@@IEAAXXZ@4HA 000000018000c11c f   EOH.obj
 0001:0000b130       ?dtor$2@?0??CheckLogic@EOH@@IEAAXXZ@4HA 000000018000c130 f   EOH.obj
 0001:0000b13c       ?dtor$8@?0??CheckLogic@EOH@@IEAAXXZ@4HA 000000018000c13c f   EOH.obj
 0001:0000b148       ?dtor$9@?0??CheckLogic@EOH@@IEAAXXZ@4HA 000000018000c148 f   EOH.obj
 0001:0000b154       ?dtor$10@?0??CheckLogic@EOH@@IEAAXXZ@4HA 000000018000c154 f   EOH.obj
 0001:0000b160       ?dtor$11@?0??CheckLogic@EOH@@IEAAXXZ@4HA 000000018000c160 f   EOH.obj
 0001:0000b16c       ?dtor$17@?0??CheckLogic@EOH@@IEAAXXZ@4HA 000000018000c16c f   EOH.obj
 0001:0000b178       ?dtor$20@?0??CheckLogic@EOH@@IEAAXXZ@4HA 000000018000c178 f   EOH.obj
 0001:0000b190       ?dtor$0@?0??GetStructBySymbol@EOH@@IEAA?AUpositionStruct@@V?$basic_string@DU?$char_traits@D@std@@V?$allocator@D@2@@std@@@Z@4HA 000000018000c190 f   EOH.obj
 0001:0000b19c       ?dtor$2@?0??GetStructBySymbol@EOH@@IEAA?AUpositionStruct@@V?$basic_string@DU?$char_traits@D@std@@V?$allocator@D@2@@std@@@Z@4HA 000000018000c19c f   EOH.obj
 0001:0000b1a8       ?dtor$7@?0??GetStructBySymbol@EOH@@IEAA?AUpositionStruct@@V?$basic_string@DU?$char_traits@D@std@@V?$allocator@D@2@@std@@@Z@4HA 000000018000c1a8 f   EOH.obj
 0001:0000b1c0       ?dtor$2@?0??CheckPosition@EOH@@IEAAXXZ@4HA 000000018000c1c0 f   EOH.obj
 0001:0000b1d0       ?dtor$0@?0??CheckStopTargetOrders@EOH@@IEAAXPEAVPosition@@UpositionStruct@@@Z@4HA 000000018000c1d0 f   EOH.obj
 0001:0000b1e0       ?dtor$0@?0??CheckKeepPositionTimeExpired@EOH@@IEAAXPEAVPosition@@UpositionStruct@@@Z@4HA 000000018000c1e0 f   EOH.obj
 0001:0000b1f0       ?dtor$0@?0??CheckIsTargetAlreadyReached@EOH@@IEAAXPEAVPosition@@UpositionStruct@@@Z@4HA 000000018000c1f0 f   EOH.obj
 0001:0000b1f0       ?dtor$0@?0??CheckOpenPositionTimeExpired@EOH@@IEAAXPEAVPosition@@UpositionStruct@@@Z@4HA 000000018000c1f0 f   EOH.obj
 0001:0000b200       ?dtor$0@?0???0?$basic_ofstream@DU?$char_traits@D@std@@@std@@QEAA@XZ@4HA 000000018000c200 f   EOH.obj
 0001:0000b22e       ?dtor$1@?0???0?$basic_ofstream@DU?$char_traits@D@std@@@std@@QEAA@XZ@4HA 000000018000c22e f   EOH.obj
 0001:0000b240       ?dtor$3@?0???0?$basic_ofstream@DU?$char_traits@D@std@@@std@@QEAA@XZ@4HA 000000018000c240 f   EOH.obj
 0001:0000b250       ?dtor$0@?0???0?$basic_ifstream@DU?$char_traits@D@std@@@std@@QEAA@XZ@4HA 000000018000c250 f   EOH.obj
 0001:0000b27e       ?dtor$1@?0???0?$basic_ifstream@DU?$char_traits@D@std@@@std@@QEAA@XZ@4HA 000000018000c27e f   EOH.obj
 0001:0000b290       ?dtor$3@?0???0?$basic_ifstream@DU?$char_traits@D@std@@@std@@QEAA@XZ@4HA 000000018000c290 f   EOH.obj
 0001:0000b2a0       ?dtor$0@?0??overflow@?$basic_filebuf@DU?$char_traits@D@std@@@std@@MEAAHH@Z@4HA 000000018000c2a0 f   EOH.obj
 0001:0000b2a0       ?dtor$0@?0??uflow@?$basic_filebuf@DU?$char_traits@D@std@@@std@@MEAAHXZ@4HA 000000018000c2a0 f   EOH.obj
 0001:0000b2b0       ?dtor$0@?0??_Endwrite@?$basic_filebuf@DU?$char_traits@D@std@@@std@@IEAA_NXZ@4HA 000000018000c2b0 f   EOH.obj
 0001:0000b2c0       ?dtor$0@?0??open@?$basic_filebuf@DU?$char_traits@D@std@@@std@@QEAAPEAV12@PEBDHH@Z@4HA 000000018000c2c0 f   EOH.obj
 0001:0000b2d0       ?dtor$2@?0???$?6U?$char_traits@D@std@@@std@@YAAEAV?$basic_ostream@DU?$char_traits@D@std@@@0@AEAV10@PEBD@Z@4HA 000000018000c2d0 f   EOH.obj
 0001:0000b2dc       ?dtor$0@?0???$?6U?$char_traits@D@std@@@std@@YAAEAV?$basic_ostream@DU?$char_traits@D@std@@@0@AEAV10@PEBD@Z@4HA 000000018000c2dc f   EOH.obj
 0001:0000b2e8       ?catch$9@?0???$?6U?$char_traits@D@std@@@std@@YAAEAV?$basic_ostream@DU?$char_traits@D@std@@@0@AEAV10@PEBD@Z@4HA 000000018000c2e8 f   EOH.obj
 0001:0000b2f5       __catch$??$?6U?$char_traits@D@std@@@std@@YAAEAV?$basic_ostream@DU?$char_traits@D@std@@@0@AEAV10@PEBD@Z$0 000000018000c2f5 f   EOH.obj
 0001:0000b320       ?dtor$0@?0??CreateTitle@@YA?AV?$basic_string@DU?$char_traits@D@std@@V?$allocator@D@2@@std@@AEBQEBDAEB_K@Z@4HA 000000018000c320 f   MainDialog.obj
 0001:0000b320       ?dtor$0@?0???$?HDU?$char_traits@D@std@@V?$allocator@D@1@@std@@YA?AV?$basic_string@DU?$char_traits@D@std@@V?$allocator@D@2@@0@AEBV10@QEBD@Z@4HA 000000018000c320 f   EOH.obj
 0001:0000b350       ?dtor$16@?0???$emplace_back@AEBUpositionStruct@@@?$vector@UpositionStruct@@V?$allocator@UpositionStruct@@@std@@@std@@QEAAXAEBUpositionStruct@@@Z@4HA 000000018000c350 f   EOH.obj
 0001:0000b372       ?dtor$69@?0???$emplace_back@AEBUpositionStruct@@@?$vector@UpositionStruct@@V?$allocator@UpositionStruct@@@std@@@std@@QEAAXAEBUpositionStruct@@@Z@4HA 000000018000c372 f   EOH.obj
 0001:0000b38e       ?catch$89@?0???$emplace_back@AEBUpositionStruct@@@?$vector@UpositionStruct@@V?$allocator@UpositionStruct@@@std@@@std@@QEAAXAEBUpositionStruct@@@Z@4HA 000000018000c38e f   EOH.obj
 0001:0000b39c       __catch$??$emplace_back@AEBUpositionStruct@@@?$vector@UpositionStruct@@V?$allocator@UpositionStruct@@@std@@@std@@QEAAXAEBUpositionStruct@@@Z$0 000000018000c39c f   EOH.obj
 0001:0000b3f0       ?dtor$0@?0???$use_facet@V?$codecvt@DDU_Mbstatet@@@std@@@std@@YAAEBV?$codecvt@DDU_Mbstatet@@@0@AEBVlocale@0@@Z@4HA 000000018000c3f0 f   EOH.obj
 0001:0000b400       ?dtor$1@?0???$_Insert_string@DU?$char_traits@D@std@@_K@std@@YAAEAV?$basic_ostream@DU?$char_traits@D@std@@@0@AEAV10@QEBD_K@Z@4HA 000000018000c400 f   EOH.obj
 0001:0000b40c       ?dtor$0@?0???$_Insert_string@DU?$char_traits@D@std@@_K@std@@YAAEAV?$basic_ostream@DU?$char_traits@D@std@@@0@AEAV10@QEBD_K@Z@4HA 000000018000c40c f   EOH.obj
 0001:0000b418       ?catch$8@?0???$_Insert_string@DU?$char_traits@D@std@@_K@std@@YAAEAV?$basic_ostream@DU?$char_traits@D@std@@@0@AEAV10@QEBD_K@Z@4HA 000000018000c418 f   EOH.obj
 0001:0000b425       __catch$??$_Insert_string@DU?$char_traits@D@std@@_K@std@@YAAEAV?$basic_ostream@DU?$char_traits@D@std@@@0@AEAV10@QEBD_K@Z$0 000000018000c425 f   EOH.obj
 0001:0000b450       ?dtor$1@?0???$getline@DU?$char_traits@D@std@@V?$allocator@D@2@@std@@YAAEAV?$basic_istream@DU?$char_traits@D@std@@@0@$$QEAV10@AEAV?$basic_string@DU?$char_traits@D@std@@V?$allocator@D@2@@0@D@Z@4HA 000000018000c450 f   EOH.obj
 0001:0000b45c       ?dtor$0@?0???$getline@DU?$char_traits@D@std@@V?$allocator@D@2@@std@@YAAEAV?$basic_istream@DU?$char_traits@D@std@@@0@$$QEAV10@AEAV?$basic_string@DU?$char_traits@D@std@@V?$allocator@D@2@@0@D@Z@4HA 000000018000c45c f   EOH.obj
 0001:0000b468       ?catch$35@?0???$getline@DU?$char_traits@D@std@@V?$allocator@D@2@@std@@YAAEAV?$basic_istream@DU?$char_traits@D@std@@@0@$$QEAV10@AEAV?$basic_string@DU?$char_traits@D@std@@V?$allocator@D@2@@0@D@Z@4HA 000000018000c468 f   EOH.obj
 0001:0000b475       __catch$??$getline@DU?$char_traits@D@std@@V?$allocator@D@2@@std@@YAAEAV?$basic_istream@DU?$char_traits@D@std@@@0@$$QEAV10@AEAV?$basic_string@DU?$char_traits@D@std@@V?$allocator@D@2@@0@D@Z$0 000000018000c475 f   EOH.obj
 0001:0000b4a0       ?dtor$0@?0???$_Floating_to_string@N@std@@YA?AV?$basic_string@DU?$char_traits@D@std@@V?$allocator@D@2@@0@PEBDN@Z@4HA 000000018000c4a0 f   EOH.obj
 0001:0000b4d0       ?catch$16@?0??_Copy@?$basic_string@DU?$char_traits@D@std@@V?$allocator@D@2@@std@@QEAAX_K@Z@4HA 000000018000c4d0 f   EOH.obj
 0001:0000b4dd       __catch$?_Copy@?$basic_string@DU?$char_traits@D@std@@V?$allocator@D@2@@std@@QEAAX_K@Z$0 000000018000c4dd f   EOH.obj
 0001:0000b500       ?dtor$0@?0???0ExtensionDerivedConfig@@QEAA@XZ@4HA 000000018000c500 f   ExtensionDerivedConfig.obj
 0001:0000b50e       ?dtor$1@?0???0ExtensionDerivedConfig@@QEAA@XZ@4HA 000000018000c50e f   ExtensionDerivedConfig.obj
 0001:0000b523       ?dtor$2@?0???0ExtensionDerivedConfig@@QEAA@XZ@4HA 000000018000c523 f   ExtensionDerivedConfig.obj
 0001:0000b538       ?dtor$3@?0???0ExtensionDerivedConfig@@QEAA@XZ@4HA 000000018000c538 f   ExtensionDerivedConfig.obj
 0001:0000b54d       ?dtor$4@?0???0ExtensionDerivedConfig@@QEAA@XZ@4HA 000000018000c54d f   ExtensionDerivedConfig.obj
 0001:0000b562       ?dtor$5@?0???0ExtensionDerivedConfig@@QEAA@XZ@4HA 000000018000c562 f   ExtensionDerivedConfig.obj
 0001:0000b56e       ?dtor$6@?0???0ExtensionDerivedConfig@@QEAA@XZ@4HA 000000018000c56e f   ExtensionDerivedConfig.obj
 0001:0000b583       ?dtor$7@?0???0ExtensionDerivedConfig@@QEAA@XZ@4HA 000000018000c583 f   ExtensionDerivedConfig.obj
 0001:0000b58f       ?dtor$8@?0???0ExtensionDerivedConfig@@QEAA@XZ@4HA 000000018000c58f f   ExtensionDerivedConfig.obj
 0001:0000b5a4       ?dtor$9@?0???0ExtensionDerivedConfig@@QEAA@XZ@4HA 000000018000c5a4 f   ExtensionDerivedConfig.obj
 0001:0000b5c0       ?dtor$0@?0??Clone@ExtensionDerivedConfig@@UEBAPEAVConfigBase@@XZ@4HA 000000018000c5c0 f   ExtensionDerivedConfig.obj
 0001:0000b5e0       ?dtor$0@?0???0MainDialog@@QEAA@PEBD_K0@Z@4HA 000000018000c5e0 f   MainDialog.obj
 0001:0000b5f0       ?dtor$0@?0??OnInitDialog@MainDialog@@MEAAHXZ@4HA 000000018000c5f0 f   MainDialog.obj
 0001:0000b5fc       ?dtor$1@?0??OnInitDialog@MainDialog@@MEAAHXZ@4HA 000000018000c5fc f   MainDialog.obj
 0001:0000b608       ?dtor$0@?0??AfxWndProcDllStatic@@YA_JPEAUHWND__@@I_K_J@Z@4HA 000000018000c608 f   mfcs140:dllmodul.obj
 0001:0000b614       InternalDllMain$dtor$0     000000018000c614 f   mfcs140:dllmodul.obj
 0001:0000b620       InternalDllMain$catch$2    000000018000c620 f   mfcs140:dllmodul.obj
 0001:0000b62f       __catch$InternalDllMain$2  000000018000c62f f   mfcs140:dllmodul.obj
 0001:0000b66e       InternalDllMain$dtor$1     000000018000c66e f   mfcs140:dllmodul.obj
 0001:0000b67a       ?fin$0@?0??dllmain_crt_process_attach@@YAHQEAUHINSTANCE__@@QEAX@Z@4HA 000000018000c67a f   msvcrt:dll_dllmain.obj
 0001:0000b691       ?fin$0@?0??dllmain_crt_process_detach@@YAH_N@Z@4HA 000000018000c691 f   msvcrt:dll_dllmain.obj
 0001:0000b6ad       ?filt$0@?0??dllmain_dispatch@@YAHQEAUHINSTANCE__@@KQEAX@Z@4HA 000000018000c6ad f   msvcrt:dll_dllmain.obj
 0001:0000b6e3       __scrt_is_nonwritable_in_current_image$filt$0 000000018000c6e3 f   msvcrt:utility.obj
 0001:0000b6e3       _IsNonwritableInCurrentImage$filt$0 000000018000c6e3 f   mfcs140:rawdllmainproxy.obj
 0001:0000b700       ??__FoutFile@@YAXXZ        000000018000c700 f   EOH.obj
 0001:0000b730       ??__FtheApp@@YAXXZ         000000018000c730 f   ExtensionSample.obj
 0001:0000b7d0       ??__FafxModuleState@@YAXXZ 000000018000c7d0 f   mfcs140:dllmodul.obj
 0001:0000b7dc       ??__F_AtlBaseModule@ATL@@YAXXZ 000000018000c7dc f   atls:atlbase.obj
 0001:0000b7e8       ??__F_Fac_tidy_reg@std@@YAXXZ 000000018000c7e8 f   msvcprt:locale0_implib.obj
 0002:00001780       ?afxModuleState$initializer$@@3P6AXXZEA 000000018000e780     mfcs140:dllmodul.obj
 0002:00001788       ?_AtlBaseModule$initializer$@ATL@@3P6AXXZEA 000000018000e788     atls:atlbase.obj
 0002:00001790       ?_Fac_tidy_reg$initializer$@std@@3P6AXXZEA 000000018000e790     msvcprt:locale0_implib.obj
 0002:00001798       ?outFile$initializer$@@3P6AXXZEA 000000018000e798     EOH.obj
 0002:000017a0       ?theApp$initializer$@@3P6AXXZEA 000000018000e7a0     ExtensionSample.obj
 0002:000017b8       ?__scrt_initialize_tss_var@@3P6AHXZEA 000000018000e7b8     msvcrt:thread_safe_statics.obj
 0002:00001808       $cppxdata$?AfxWndProcDllStatic@@YA_JPEAUHWND__@@I_K_J@Z 000000018000e808     mfcs140:dllmodul.obj
 0002:00001830       $cppxdata$InternalDllMain  000000018000e830     mfcs140:dllmodul.obj
 0002:00001950       GS_ExceptionPointers       000000018000e950     msvcrt:gs_report.obj
 0002:000019f8       $cppxdata$??_G_Fac_node@std@@QEAAPEAXI@Z 000000018000e9f8     msvcprt:locale0_implib.obj
 0002:000020c0       ?_messageEntries@?1??GetThisMessageMap@EOH@@KAPEBUAFX_MSGMAP@@XZ@4QBUAFX_MSGMAP_ENTRY@@B 000000018000f0c0     EOH.obj
 0002:00003e88       ?ReceiverHeaderVersion@@3QEBDEB 0000000180010e88     ExtensionSample.obj
 0002:00003e90       ?ObserverHeaderVersion@@3QEBDEB 0000000180010e90     ExtensionSample.obj
 0002:00003e98       ?TakionLogHeaderVersion@@3QEBDEB 0000000180010e98     ExtensionSample.obj
 0002:00003ea0       ?TakionDataHeaderVersion@@3QEBDEB 0000000180010ea0     ExtensionSample.obj
 0002:00003ea8       ?TakionGuiHeaderVersion@@3QEBDEB 0000000180010ea8     ExtensionSample.obj
 0002:00003eb0       ?TakionUtilsHeaderVersion@@3QEBDEB 0000000180010eb0     ExtensionSample.obj
 0002:00003eb8       ?UtilsGuiHeaderVersion@@3QEBDEB 0000000180010eb8     ExtensionSample.obj
 0002:00003ec0       ?UtilsHeaderVersion@@3QEBDEB 0000000180010ec0     ExtensionSample.obj
 0002:00003ec8       ?configExtension@@3QEBDEB  0000000180010ec8     ExtensionSample.obj
 0002:00003ed0       ?settingDel@@3DB           0000000180010ed0     stdafx.obj
 0002:00004d40       $cppxdata$?_Copy@?$basic_string@DU?$char_traits@D@std@@V?$allocator@D@2@@std@@QEAAX_K@Z 0000000180011d40     EOH.obj
 0002:00004d68       $cppxdata$??$_Floating_to_string@N@std@@YA?AV?$basic_string@DU?$char_traits@D@std@@V?$allocator@D@2@@0@PEBDN@Z 0000000180011d68     EOH.obj
 0002:00004d90       $cppxdata$??1locale@std@@QEAA@XZ 0000000180011d90     EOH.obj
 0002:00004db8       $cppxdata$??1sentry@?$basic_istream@DU?$char_traits@D@std@@@std@@QEAA@XZ 0000000180011db8     EOH.obj
 0002:00004de0       $cppxdata$??$getline@DU?$char_traits@D@std@@V?$allocator@D@2@@std@@YAAEAV?$basic_istream@DU?$char_traits@D@std@@@0@$$QEAV10@AEAV?$basic_string@DU?$char_traits@D@std@@V?$allocator@D@2@@0@D@Z 0000000180011de0     EOH.obj
 0002:00004e08       $cppxdata$??$_Insert_string@DU?$char_traits@D@std@@_K@std@@YAAEAV?$basic_ostream@DU?$char_traits@D@std@@@0@AEAV10@QEBD_K@Z 0000000180011e08     EOH.obj
 0002:00004e30       $cppxdata$??$use_facet@V?$codecvt@DDU_Mbstatet@@@std@@@std@@YAAEBV?$codecvt@DDU_Mbstatet@@@0@AEBVlocale@0@@Z 0000000180011e30     EOH.obj
 0002:00004e58       $cppxdata$??$emplace_back@AEBUpositionStruct@@@?$vector@UpositionStruct@@V?$allocator@UpositionStruct@@@std@@@std@@QEAAXAEBUpositionStruct@@@Z 0000000180011e58     EOH.obj
 0002:00004e80       $cppxdata$??$?HDU?$char_traits@D@std@@V?$allocator@D@1@@std@@YA?AV?$basic_string@DU?$char_traits@D@std@@V?$allocator@D@2@@0@AEBV10@QEBD@Z 0000000180011e80     EOH.obj
 0002:00004ea8       $cppxdata$??$?6U?$char_traits@D@std@@@std@@YAAEAV?$basic_ostream@DU?$char_traits@D@std@@@0@AEAV10@PEBD@Z 0000000180011ea8     EOH.obj
 0002:00004ed0       $cppxdata$?open@?$basic_filebuf@DU?$char_traits@D@std@@@std@@QEAAPEAV12@PEBDHH@Z 0000000180011ed0     EOH.obj
 0002:00004ef8       $cppxdata$??1_Sentry_base@?$basic_ostream@DU?$char_traits@D@std@@@std@@QEAA@XZ 0000000180011ef8     EOH.obj
 0002:00004ef8       $cppxdata$??1_Sentry_base@?$basic_istream@DU?$char_traits@D@std@@@std@@QEAA@XZ 0000000180011ef8     EOH.obj
 0002:00004f20       $cppxdata$?_Endwrite@?$basic_filebuf@DU?$char_traits@D@std@@@std@@IEAA_NXZ 0000000180011f20     EOH.obj
 0002:00004f48       $cppxdata$??1sentry@?$basic_ostream@DU?$char_traits@D@std@@@std@@QEAA@XZ 0000000180011f48     EOH.obj
 0002:00004f70       $cppxdata$??_G?$basic_filebuf@DU?$char_traits@D@std@@@std@@UEAAPEAXI@Z 0000000180011f70     EOH.obj
 0002:00004f98       $cppxdata$?overflow@?$basic_filebuf@DU?$char_traits@D@std@@@std@@MEAAHH@Z 0000000180011f98     EOH.obj
 0002:00004fc0       $cppxdata$?uflow@?$basic_filebuf@DU?$char_traits@D@std@@@std@@MEAAHXZ 0000000180011fc0     EOH.obj
 0002:00004fe8       $cppxdata$??0?$basic_ifstream@DU?$char_traits@D@std@@@std@@QEAA@XZ 0000000180011fe8     EOH.obj
 0002:00005010       $cppxdata$??1?$basic_ifstream@DU?$char_traits@D@std@@@std@@UEAA@XZ 0000000180012010     EOH.obj
 0002:00005038       $cppxdata$??0?$basic_ofstream@DU?$char_traits@D@std@@@std@@QEAA@XZ 0000000180012038     EOH.obj
 0002:00005060       $cppxdata$??1?$basic_ofstream@DU?$char_traits@D@std@@@std@@UEAA@XZ 0000000180012060     EOH.obj
 0002:00005088       $cppxdata$?CheckIsTargetAlreadyReached@EOH@@IEAAXPEAVPosition@@UpositionStruct@@@Z 0000000180012088     EOH.obj
 0002:000050b0       $cppxdata$?CheckOpenPositionTimeExpired@EOH@@IEAAXPEAVPosition@@UpositionStruct@@@Z 00000001800120b0     EOH.obj
 0002:000050d8       $cppxdata$?CheckKeepPositionTimeExpired@EOH@@IEAAXPEAVPosition@@UpositionStruct@@@Z 00000001800120d8     EOH.obj
 0002:00005100       $cppxdata$?CheckStopTargetOrders@EOH@@IEAAXPEAVPosition@@UpositionStruct@@@Z 0000000180012100     EOH.obj
 0002:00005128       $cppxdata$?CheckPosition@EOH@@IEAAXXZ 0000000180012128     EOH.obj
 0002:00005150       $cppxdata$?GetStructBySymbol@EOH@@IEAA?AUpositionStruct@@V?$basic_string@DU?$char_traits@D@std@@V?$allocator@D@2@@std@@@Z 0000000180012150     EOH.obj
 0002:00005178       $cppxdata$?CheckLogic@EOH@@IEAAXXZ 0000000180012178     EOH.obj
 0002:000051a0       $cppxdata$?InitializeTriggeredList@EOH@@IEAAXXZ 00000001800121a0     EOH.obj
 0002:000051c8       $cppxdata$?InitializeTickerList@EOH@@IEAAXXZ 00000001800121c8     EOH.obj
 0002:000051f0       $cppxdata$?Notify@EOH@@MEAAXPEBVMessage@@PEBVObservable@@0@Z 00000001800121f0     EOH.obj
 0002:00005218       $cppxdata$??0EOH@@QEAA@PEAVTakionMainWnd@@PEAVTakionSettingTabDialog@@@Z 0000000180012218     EOH.obj
 0002:00005240       $cppxdata$?GetCurrentDate@@YA?AV?$basic_string@DU?$char_traits@D@std@@V?$allocator@D@2@@std@@XZ 0000000180012240     EOH.obj
 0002:00005268       $cppxdata$?WriteToTechLogFile@@YAXV?$basic_string@DU?$char_traits@D@std@@V?$allocator@D@2@@std@@@Z 0000000180012268     EOH.obj
 0002:000052c0       $cppxdata$?Clone@ExtensionDerivedConfig@@UEBAPEAVConfigBase@@XZ 00000001800122c0     ExtensionDerivedConfig.obj
 0002:000052e8       $cppxdata$??0ExtensionDerivedConfig@@QEAA@XZ 00000001800122e8     ExtensionDerivedConfig.obj
 0002:00005310       $cppxdata$?OnInitDialog@MainDialog@@MEAAHXZ 0000000180012310     MainDialog.obj
 0002:00005338       $cppxdata$?CreateTitle@@YA?AV?$basic_string@DU?$char_traits@D@std@@V?$allocator@D@2@@std@@AEBQEBDAEB_K@Z 0000000180012338     MainDialog.obj
 0002:00005360       $cppxdata$??0MainDialog@@QEAA@PEBD_K0@Z 0000000180012360     MainDialog.obj
 0002:00006e00       $unwind$__scrt_dllmain_crt_thread_attach 0000000180013e00     msvcrt:utility.obj
 0002:00006e00       $unwind$?deallocate@?$_Wrap_alloc@V?$allocator@UpositionStruct@@@std@@@std@@QEAAXPEAUpositionStruct@@_K@Z 0000000180013e00     EOH.obj
 0002:00006e00       $unwind$__scrt_dllmain_uninitialize_critical 0000000180013e00     msvcrt:utility.obj
 0002:00006e00       $unwind$__scrt_initialize_default_local_stdio_options 0000000180013e00     msvcrt:default_local_stdio_options.obj
 0002:00006e00       $unwind$__scrt_dllmain_uninitialize_c 0000000180013e00     msvcrt:utility.obj
 0002:00006e00       $unwind$__scrt_dllmain_after_initialize_c 0000000180013e00     msvcrt:utility.obj
 0002:00006e00       $unwind$__GSHandlerCheck   0000000180013e00     msvcrt:_gshandler_.obj
 0002:00006e00       $unwind$?deallocate@?$_Wrap_alloc@V?$allocator@D@std@@@std@@QEAAXPEAD_K@Z 0000000180013e00     EOH.obj
 0002:00006e00       $unwind$??__E_AtlBaseModule@ATL@@YAXXZ 0000000180013e00     atls:atlbase.obj
 0002:00006e00       $unwind$__scrt_acquire_startup_lock 0000000180013e00     msvcrt:utility.obj
 0002:00006e00       $unwind$atexit             0000000180013e00     msvcrt:utility.obj
 0002:00006e00       $unwind$RawDllMain         0000000180013e00     mfcs140:dllmodul.obj
 0002:00006e00       $unwind$?allocate@?$_Wrap_alloc@V?$allocator@D@std@@@std@@QEAAPEAD_K@Z 0000000180013e00     EOH.obj
 0002:00006e00       $unwind$?GetMessageMap@EOH@@MEBAPEBUAFX_MSGMAP@@XZ 0000000180013e00     EOH.obj
 0002:00006e00       $unwind$?_Xlen@?$basic_string@DU?$char_traits@D@std@@V?$allocator@D@2@@std@@SAXXZ 0000000180013e00     EOH.obj
 0002:00006e00       $unwind$?dllmain_crt_dispatch@@YAHQEAUHINSTANCE__@@KQEAX@Z 0000000180013e00     msvcrt:dll_dllmain.obj
 0002:00006e00       $unwind$?_Xran@?$basic_string@DU?$char_traits@D@std@@V?$allocator@D@2@@std@@SAXXZ 0000000180013e00     EOH.obj
 0002:00006e00       $unwind$?AfxGetApp@@YAPEAVCWinApp@@XZ 0000000180013e00     mfcs140:dllmodulx.obj
 0002:00006e00       $unwind$__scrt_dllmain_crt_thread_detach 0000000180013e00     msvcrt:utility.obj
 0002:00006e00       $unwind$??__F_Fac_tidy_reg@std@@YAXXZ 0000000180013e00     msvcprt:locale0_implib.obj
 0002:00006e00       $unwind$__scrt_dllmain_before_initialize_c 0000000180013e00     msvcrt:utility.obj
 0002:00006e00       $unwind$?_Xlength@?$vector@UpositionStruct@@V?$allocator@UpositionStruct@@@std@@@std@@CAXXZ 0000000180013e00     EOH.obj
 0002:00006e00       $unwind$?__scrt_uninitialize_thread_safe_statics@@YAXXZ 0000000180013e00     msvcrt:thread_safe_statics.obj
 0002:00006e00       $unwind$??__EoutFile@@YAXXZ 0000000180013e00     EOH.obj
 0002:00006e00       $unwind$??__EtheApp@@YAXXZ 0000000180013e00     ExtensionSample.obj
 0002:00006e00       $unwind$??__FtheApp@@YAXXZ 0000000180013e00     ExtensionSample.obj
 0002:00006e00       $unwind$GetExtensionInfo   0000000180013e00     ExtensionSample.obj
 0002:00006e00       $unwind$ExtensionTerminate 0000000180013e00     ExtensionSample.obj
 0002:00006e00       $unwind$??__FoutFile@@YAXXZ 0000000180013e00     EOH.obj
 0002:00006e00       $unwind$?_Xlength@?$vector@PEAVSecurity@@V?$allocator@PEAVSecurity@@@std@@@std@@CAXXZ 0000000180013e00     EOH.obj
 0002:00006e08       $unwind$?WriteToTechLogFile@@YAXV?$basic_string@DU?$char_traits@D@std@@V?$allocator@D@2@@std@@@Z 0000000180013e08     EOH.obj
 0002:00006e20       $stateUnwindMap$?WriteToTechLogFile@@YAXV?$basic_string@DU?$char_traits@D@std@@V?$allocator@D@2@@std@@@Z 0000000180013e20     EOH.obj
 0002:00006e30       $ip2state$?WriteToTechLogFile@@YAXV?$basic_string@DU?$char_traits@D@std@@V?$allocator@D@2@@std@@@Z 0000000180013e30     EOH.obj
 0002:00006e58       $unwind$?isOpenInGapRange@@YA_NVPrice@@0@Z 0000000180013e58     EOH.obj
 0002:00006e60       $unwind$?GetCurrentDate@@YA?AV?$basic_string@DU?$char_traits@D@std@@V?$allocator@D@2@@std@@XZ 0000000180013e60     EOH.obj
 0002:00006e88       $stateUnwindMap$?GetCurrentDate@@YA?AV?$basic_string@DU?$char_traits@D@std@@V?$allocator@D@2@@std@@XZ 0000000180013e88     EOH.obj
 0002:00006ee0       $ip2state$?GetCurrentDate@@YA?AV?$basic_string@DU?$char_traits@D@std@@V?$allocator@D@2@@std@@XZ 0000000180013ee0     EOH.obj
 0002:00006fa0       $unwind$?dtor$0@?0??Clone@ExtensionDerivedConfig@@UEBAPEAVConfigBase@@XZ@4HA 0000000180013fa0     ExtensionDerivedConfig.obj
 0002:00006fa0       $unwind$?dtor$0@?0???$?HDU?$char_traits@D@std@@V?$allocator@D@1@@std@@YA?AV?$basic_string@DU?$char_traits@D@std@@V?$allocator@D@2@@0@AEBV10@QEBD@Z@4HA 0000000180013fa0     EOH.obj
 0002:00006fa0       $unwind$?dtor$0@?0???0?$basic_ofstream@DU?$char_traits@D@std@@@std@@QEAA@XZ@4HA 0000000180013fa0     EOH.obj
 0002:00006fa0       $unwind$?fin$0@?0??dllmain_crt_process_attach@@YAHQEAUHINSTANCE__@@QEAX@Z@4HA 0000000180013fa0     msvcrt:dll_dllmain.obj
 0002:00006fa0       $unwind$?dtor$16@?0???$emplace_back@AEBUpositionStruct@@@?$vector@UpositionStruct@@V?$allocator@UpositionStruct@@@std@@@std@@QEAAXAEBUpositionStruct@@@Z@4HA 0000000180013fa0     EOH.obj
 0002:00006fa0       $unwind$?dtor$0@?0???$_Floating_to_string@N@std@@YA?AV?$basic_string@DU?$char_traits@D@std@@V?$allocator@D@2@@0@PEBDN@Z@4HA 0000000180013fa0     EOH.obj
 0002:00006fa0       $unwind$?dtor$69@?0???$emplace_back@AEBUpositionStruct@@@?$vector@UpositionStruct@@V?$allocator@UpositionStruct@@@std@@@std@@QEAAXAEBUpositionStruct@@@Z@4HA 0000000180013fa0     EOH.obj
 0002:00006fa0       $unwind$?dtor$0@?0???0?$basic_ifstream@DU?$char_traits@D@std@@@std@@QEAA@XZ@4HA 0000000180013fa0     EOH.obj
 0002:00006fa0       $unwind$?dtor$0@?0??CreateTitle@@YA?AV?$basic_string@DU?$char_traits@D@std@@V?$allocator@D@2@@std@@AEBQEBDAEB_K@Z@4HA 0000000180013fa0     MainDialog.obj
 0002:00006fa0       $unwind$?dtor$1@?0??GetCurrentDate@@YA?AV?$basic_string@DU?$char_traits@D@std@@V?$allocator@D@2@@std@@XZ@4HA 0000000180013fa0     EOH.obj
 0002:00006fa0       $unwind$?fin$0@?0??dllmain_crt_process_detach@@YAH_N@Z@4HA 0000000180013fa0     msvcrt:dll_dllmain.obj
 0002:00006fa0       $unwind$?dtor$2@?0??GetCurrentDate@@YA?AV?$basic_string@DU?$char_traits@D@std@@V?$allocator@D@2@@std@@XZ@4HA 0000000180013fa0     EOH.obj
 0002:00006fa0       $unwind$?dtor$0@?0??GetCurrentDate@@YA?AV?$basic_string@DU?$char_traits@D@std@@V?$allocator@D@2@@std@@XZ@4HA 0000000180013fa0     EOH.obj
 0002:00006fa0       $unwind$?dtor$10@?0??GetCurrentDate@@YA?AV?$basic_string@DU?$char_traits@D@std@@V?$allocator@D@2@@std@@XZ@4HA 0000000180013fa0     EOH.obj
 0002:00006fa0       $unwind$?dtor$9@?0??GetCurrentDate@@YA?AV?$basic_string@DU?$char_traits@D@std@@V?$allocator@D@2@@std@@XZ@4HA 0000000180013fa0     EOH.obj
 0002:00006fa0       $unwind$?dtor$8@?0??GetCurrentDate@@YA?AV?$basic_string@DU?$char_traits@D@std@@V?$allocator@D@2@@std@@XZ@4HA 0000000180013fa0     EOH.obj
 0002:00006fa0       $unwind$?dtor$7@?0??GetCurrentDate@@YA?AV?$basic_string@DU?$char_traits@D@std@@V?$allocator@D@2@@std@@XZ@4HA 0000000180013fa0     EOH.obj
 0002:00006fa0       $unwind$?dtor$6@?0??GetCurrentDate@@YA?AV?$basic_string@DU?$char_traits@D@std@@V?$allocator@D@2@@std@@XZ@4HA 0000000180013fa0     EOH.obj
 0002:00006fa0       $unwind$?dtor$5@?0??GetCurrentDate@@YA?AV?$basic_string@DU?$char_traits@D@std@@V?$allocator@D@2@@std@@XZ@4HA 0000000180013fa0     EOH.obj
 0002:00006fa0       $unwind$?dtor$3@?0??GetCurrentDate@@YA?AV?$basic_string@DU?$char_traits@D@std@@V?$allocator@D@2@@std@@XZ@4HA 0000000180013fa0     EOH.obj
 0002:00006fa8       $unwind$_DllMainCRTStartup 0000000180013fa8     msvcrt:dll_dllmain.obj
 0002:00006fa8       $unwind$_RTC_Terminate     0000000180013fa8     msvcrt:_initsect_.obj
 0002:00006fa8       $unwind$?assign@?$basic_string@DU?$char_traits@D@std@@V?$allocator@D@2@@std@@QEAAAEAV12@QEBD_K@Z 0000000180013fa8     EOH.obj
 0002:00006fa8       $unwind$?close@?$basic_filebuf@DU?$char_traits@D@std@@@std@@QEAAPEAV12@XZ 0000000180013fa8     EOH.obj
 0002:00006fa8       $unwind$_Init_thread_wait  0000000180013fa8     msvcrt:thread_safe_statics.obj
 0002:00006fa8       $unwind$??_G?$basic_ifstream@DU?$char_traits@D@std@@@std@@UEAAPEAXI@Z 0000000180013fa8     EOH.obj
 0002:00006fa8       $unwind$??_G?$basic_ofstream@DU?$char_traits@D@std@@@std@@UEAAPEAXI@Z 0000000180013fa8     EOH.obj
 0002:00006fa8       $unwind$?__scrt_initialize_thread_safe_statics@@YAHXZ 0000000180013fa8     msvcrt:thread_safe_statics.obj
 0002:00006fa8       $unwind$_RTC_Initialize    0000000180013fa8     msvcrt:_initsect_.obj
 0002:00006fa8       $unwind$?GetAccountById@@YAPEAVAccount@@PEBD@Z 0000000180013fa8     EOH.obj
 0002:00006fb8       $unwind$??0EOH@@QEAA@PEAVTakionMainWnd@@PEAVTakionSettingTabDialog@@@Z 0000000180013fb8     EOH.obj
 0002:00006fd0       $stateUnwindMap$??0EOH@@QEAA@PEAVTakionMainWnd@@PEAVTakionSettingTabDialog@@@Z 0000000180013fd0     EOH.obj
 0002:00007010       $ip2state$??0EOH@@QEAA@PEAVTakionMainWnd@@PEAVTakionSettingTabDialog@@@Z 0000000180014010     EOH.obj
 0002:00007060       $unwind$?imbue@?$basic_filebuf@DU?$char_traits@D@std@@@std@@MEAAXAEBVlocale@2@@Z 0000000180014060     EOH.obj
 0002:00007060       $unwind$??_GCButton@@UEAAPEAXI@Z 0000000180014060     EOH.obj
 0002:00007060       $unwind$??_GEOH@@UEAAPEAXI@Z 0000000180014060     EOH.obj
 0002:00007060       $unwind$??1EOH@@UEAA@XZ    0000000180014060     EOH.obj
 0002:00007060       $unwind$?erase@?$basic_string@DU?$char_traits@D@std@@V?$allocator@D@2@@std@@QEAAAEAV12@_K0@Z 0000000180014060     EOH.obj
 0002:00007060       $unwind$??_GCStatic@@UEAAPEAXI@Z 0000000180014060     EOH.obj
 0002:00007060       $unwind$??_GTakionPopupWnd@@UEAAPEAXI@Z 0000000180014060     ExtensionSample.obj
 0002:00007060       $unwind$??_GExtensionSample@@UEAAPEAXI@Z 0000000180014060     ExtensionSample.obj
 0002:00007060       $unwind$?DoDataExchange@EOH@@MEAAXPEAVCDataExchange@@@Z 0000000180014060     EOH.obj
 0002:00007060       $unwind$??0CAtlBaseModule@ATL@@QEAA@XZ 0000000180014060     atls:atlbase.obj
 0002:00007060       $unwind$??_G_AFX_DLL_MODULE_STATE@@UEAAPEAXI@Z 0000000180014060     mfcs140:dllmodul.obj
 0002:00007060       $unwind$?assign@?$basic_string@DU?$char_traits@D@std@@V?$allocator@D@2@@std@@QEAAAEAV12@_KD@Z 0000000180014060     EOH.obj
 0002:00007060       $unwind$??_GExtensionDerivedConfig@@UEAAPEAXI@Z 0000000180014060     ExtensionDerivedConfig.obj
 0002:00007060       $unwind$??Y?$basic_string@DU?$char_traits@D@std@@V?$allocator@D@2@@std@@QEAAAEAV01@D@Z 0000000180014060     EOH.obj
 0002:00007060       $unwind$?DoSubscribe@EOH@@IEAA_NXZ 0000000180014060     EOH.obj
 0002:00007060       $unwind$?OnInitDialog@EOH@@MEAAHXZ 0000000180014060     EOH.obj
 0002:00007060       $unwind$?pbackfail@?$basic_filebuf@DU?$char_traits@D@std@@@std@@MEAAHH@Z 0000000180014060     EOH.obj
 0002:00007060       $unwind$??_GTakionSettingTabDialog@@UEAAPEAXI@Z 0000000180014060     MainDialog.obj
 0002:00007060       $unwind$??_GMainDialog@@UEAAPEAXI@Z 0000000180014060     MainDialog.obj
 0002:00007060       $unwind$??_Gexception@std@@UEAAPEAXI@Z 0000000180014060     EOH.obj
 0002:00007060       $unwind$??_Gbad_cast@std@@UEAAPEAXI@Z 0000000180014060     EOH.obj
 0002:00007060       $unwind$??_GTakionMessageBox@@UEAAPEAXI@Z 0000000180014060     ExtensionSample.obj
 0002:0000706c       $unwind$?AddSettings@ExtensionDerivedConfig@@IEAAXXZ 000000018001406c     ExtensionDerivedConfig.obj
 0002:0000706c       $unwind$??_D?$basic_ifstream@DU?$char_traits@D@std@@@std@@QEAAXXZ 000000018001406c     EOH.obj
 0002:0000706c       $unwind$__scrt_release_startup_lock 000000018001406c     msvcrt:utility.obj
 0002:0000706c       $unwind$__scrt_initialize_crt 000000018001406c     msvcrt:utility.obj
 0002:0000706c       $unwind$_onexit            000000018001406c     msvcrt:utility.obj
 0002:0000706c       $unwind$__scrt_uninitialize_crt 000000018001406c     msvcrt:utility.obj
 0002:0000706c       $unwind$??0exception@std@@QEAA@AEBV01@@Z 000000018001406c     EOH.obj
 0002:0000706c       $unwind$?_Tidy_deallocate@?$basic_string@DU?$char_traits@D@std@@V?$allocator@D@2@@std@@QEAAXXZ 000000018001406c     EOH.obj
 0002:0000706c       $unwind$DllMain            000000018001406c     mfcs140:dllmodul.obj
 0002:0000706c       $unwind$__raise_securityfailure 000000018001406c     msvcrt:gs_report.obj
 0002:0000706c       $unwind$??_Gtype_info@@UEAAPEAXI@Z 000000018001406c     msvcrt:std_type_info_static.obj
 0002:0000706c       $unwind$_Init_thread_header 000000018001406c     msvcrt:thread_safe_statics.obj
 0002:0000706c       $unwind$_Init_thread_footer 000000018001406c     msvcrt:thread_safe_statics.obj
 0002:0000706c       $unwind$??0ExtensionSample@@QEAA@XZ 000000018001406c     ExtensionSample.obj
 0002:0000706c       $unwind$??$endl@DU?$char_traits@D@std@@@std@@YAAEAV?$basic_ostream@DU?$char_traits@D@std@@@0@AEAV10@@Z 000000018001406c     EOH.obj
 0002:0000706c       $unwind$?OnStop@EOH@@IEAAXXZ 000000018001406c     EOH.obj
 0002:0000706c       $unwind$?OnRun@EOH@@IEAAXXZ 000000018001406c     EOH.obj
 0002:0000706c       $unwind$?BeforeDestroy@EOH@@MEAAXXZ 000000018001406c     EOH.obj
 0002:0000706c       $unwind$??1CAtlBaseModule@ATL@@QEAA@XZ 000000018001406c     atls:atlbase.obj
 0002:0000706c       $unwind$?Leaving@EOH@@MEAAXXZ 000000018001406c     EOH.obj
 0002:0000706c       $unwind$?Entering@EOH@@MEAAXXZ 000000018001406c     EOH.obj
 0002:0000706c       $unwind$??0bad_cast@std@@QEAA@AEBV01@@Z 000000018001406c     EOH.obj
 0002:0000706c       $unwind$?_Facet_Register@std@@YAXPEAV_Facet_base@1@@Z 000000018001406c     msvcprt:locale0_implib.obj
 0002:0000706c       $unwind$?sync@?$basic_filebuf@DU?$char_traits@D@std@@@std@@MEAAHXZ 000000018001406c     EOH.obj
 0002:0000706c       $unwind$_Init_thread_notify 000000018001406c     msvcrt:thread_safe_statics.obj
 0002:0000706c       $unwind$?_Tidy@?$vector@PEAVSecurity@@V?$allocator@PEAVSecurity@@@std@@@std@@AEAAXXZ 000000018001406c     EOH.obj
 0002:0000706c       $unwind$?underflow@?$basic_filebuf@DU?$char_traits@D@std@@@std@@MEAAHXZ 000000018001406c     EOH.obj
 0002:00007074       $unwind$?Notify@EOH@@MEAAXPEBVMessage@@PEBVObservable@@0@Z 0000000180014074     EOH.obj
 0002:00007090       $stateUnwindMap$?Notify@EOH@@MEAAXPEBVMessage@@PEBVObservable@@0@Z 0000000180014090     EOH.obj
 0002:00007098       $ip2state$?Notify@EOH@@MEAAXPEBVMessage@@PEBVObservable@@0@Z 0000000180014098     EOH.obj
 0002:000070b0       $unwind$?InitializeTickerList@EOH@@IEAAXXZ 00000001800140b0     EOH.obj
 0002:000070cc       $stateUnwindMap$?InitializeTickerList@EOH@@IEAAXXZ 00000001800140cc     EOH.obj
 0002:00007100       $ip2state$?InitializeTickerList@EOH@@IEAAXXZ 0000000180014100     EOH.obj
 0002:00007158       $unwind$?InitializeTriggeredList@EOH@@IEAAXXZ 0000000180014158     EOH.obj
 0002:00007194       $stateUnwindMap$?InitializeTriggeredList@EOH@@IEAAXXZ 0000000180014194     EOH.obj
 0002:000071a8       $ip2state$?InitializeTriggeredList@EOH@@IEAAXXZ 00000001800141a8     EOH.obj
 0002:000071e0       $unwind$?CheckLogic@EOH@@IEAAXXZ 00000001800141e0     EOH.obj
 0002:0000721c       $stateUnwindMap$?CheckLogic@EOH@@IEAAXXZ 000000018001421c     EOH.obj
 0002:00007260       $ip2state$?CheckLogic@EOH@@IEAAXXZ 0000000180014260     EOH.obj
 0002:000072d8       $unwind$?SendOrder@EOH@@IEAAXPEAVSecurity@@DVPrice@@IE@Z 00000001800142d8     EOH.obj
 0002:000072ec       $unwind$?GetStructBySymbol@EOH@@IEAA?AUpositionStruct@@V?$basic_string@DU?$char_traits@D@std@@V?$allocator@D@2@@std@@@Z 00000001800142ec     EOH.obj
 0002:00007314       $stateUnwindMap$?GetStructBySymbol@EOH@@IEAA?AUpositionStruct@@V?$basic_string@DU?$char_traits@D@std@@V?$allocator@D@2@@std@@@Z 0000000180014314     EOH.obj
 0002:00007330       $ip2state$?GetStructBySymbol@EOH@@IEAA?AUpositionStruct@@V?$basic_string@DU?$char_traits@D@std@@V?$allocator@D@2@@std@@@Z 0000000180014330     EOH.obj
 0002:00007378       $unwind$?CheckPosition@EOH@@IEAAXXZ 0000000180014378     EOH.obj
 0002:000073a4       $stateUnwindMap$?CheckPosition@EOH@@IEAAXXZ 00000001800143a4     EOH.obj
 0002:000073b0       $ip2state$?CheckPosition@EOH@@IEAAXXZ 00000001800143b0     EOH.obj
 0002:000073c8       $unwind$?CheckStopTargetOrders@EOH@@IEAAXPEAVPosition@@UpositionStruct@@@Z 00000001800143c8     EOH.obj
 0002:000073ec       $stateUnwindMap$?CheckStopTargetOrders@EOH@@IEAAXPEAVPosition@@UpositionStruct@@@Z 00000001800143ec     EOH.obj
 0002:000073f8       $ip2state$?CheckStopTargetOrders@EOH@@IEAAXPEAVPosition@@UpositionStruct@@@Z 00000001800143f8     EOH.obj
 0002:00007410       $unwind$?CheckKeepPositionTimeExpired@EOH@@IEAAXPEAVPosition@@UpositionStruct@@@Z 0000000180014410     EOH.obj
 0002:0000742c       $stateUnwindMap$?CheckKeepPositionTimeExpired@EOH@@IEAAXPEAVPosition@@UpositionStruct@@@Z 000000018001442c     EOH.obj
 0002:00007438       $ip2state$?CheckKeepPositionTimeExpired@EOH@@IEAAXPEAVPosition@@UpositionStruct@@@Z 0000000180014438     EOH.obj
 0002:00007450       $unwind$?CheckOpenPositionTimeExpired@EOH@@IEAAXPEAVPosition@@UpositionStruct@@@Z 0000000180014450     EOH.obj
 0002:0000746c       $stateUnwindMap$?CheckIsTargetAlreadyReached@EOH@@IEAAXPEAVPosition@@UpositionStruct@@@Z 000000018001446c     EOH.obj
 0002:0000746c       $stateUnwindMap$?CheckOpenPositionTimeExpired@EOH@@IEAAXPEAVPosition@@UpositionStruct@@@Z 000000018001446c     EOH.obj
 0002:00007478       $ip2state$?CheckOpenPositionTimeExpired@EOH@@IEAAXPEAVPosition@@UpositionStruct@@@Z 0000000180014478     EOH.obj
 0002:00007490       $unwind$?CheckIsTargetAlreadyReached@EOH@@IEAAXPEAVPosition@@UpositionStruct@@@Z 0000000180014490     EOH.obj
 0002:000074b0       $ip2state$?CheckIsTargetAlreadyReached@EOH@@IEAAXPEAVPosition@@UpositionStruct@@@Z 00000001800144b0     EOH.obj
 0002:000074c8       $unwind$??1?$basic_ofstream@DU?$char_traits@D@std@@@std@@UEAA@XZ 00000001800144c8     EOH.obj
 0002:000074dc       $stateUnwindMap$??_G?$basic_filebuf@DU?$char_traits@D@std@@@std@@UEAAPEAXI@Z 00000001800144dc     EOH.obj
 0002:000074dc       $stateUnwindMap$??1?$basic_ofstream@DU?$char_traits@D@std@@@std@@UEAA@XZ 00000001800144dc     EOH.obj
 0002:000074dc       $stateUnwindMap$??1?$basic_ifstream@DU?$char_traits@D@std@@@std@@UEAA@XZ 00000001800144dc     EOH.obj
 0002:000074dc       $stateUnwindMap$??_G_Fac_node@std@@QEAAPEAXI@Z 00000001800144dc     msvcprt:locale0_implib.obj
 0002:000074dc       $stateUnwindMap$??1sentry@?$basic_ostream@DU?$char_traits@D@std@@@std@@QEAA@XZ 00000001800144dc     EOH.obj
 0002:000074dc       $stateUnwindMap$??1sentry@?$basic_istream@DU?$char_traits@D@std@@@std@@QEAA@XZ 00000001800144dc     EOH.obj
 0002:000074e8       $ip2state$??1?$basic_ofstream@DU?$char_traits@D@std@@@std@@UEAA@XZ 00000001800144e8     EOH.obj
 0002:00007500       $unwind$??0?$basic_ofstream@DU?$char_traits@D@std@@@std@@QEAA@XZ 0000000180014500     EOH.obj
 0002:00007514       $stateUnwindMap$??0?$basic_ofstream@DU?$char_traits@D@std@@@std@@QEAA@XZ 0000000180014514     EOH.obj
 0002:00007530       $ip2state$??0?$basic_ofstream@DU?$char_traits@D@std@@@std@@QEAA@XZ 0000000180014530     EOH.obj
 0002:00007558       $unwind$??1?$basic_ifstream@DU?$char_traits@D@std@@@std@@UEAA@XZ 0000000180014558     EOH.obj
 0002:00007570       $ip2state$??1?$basic_ifstream@DU?$char_traits@D@std@@@std@@UEAA@XZ 0000000180014570     EOH.obj
 0002:00007588       $unwind$??0?$basic_ifstream@DU?$char_traits@D@std@@@std@@QEAA@XZ 0000000180014588     EOH.obj
 0002:0000759c       $stateUnwindMap$??0?$basic_ifstream@DU?$char_traits@D@std@@@std@@QEAA@XZ 000000018001459c     EOH.obj
 0002:000075b8       $ip2state$??0?$basic_ifstream@DU?$char_traits@D@std@@@std@@QEAA@XZ 00000001800145b8     EOH.obj
 0002:000075e0       $unwind$?setbuf@?$basic_filebuf@DU?$char_traits@D@std@@@std@@MEAAPEAV?$basic_streambuf@DU?$char_traits@D@std@@@2@PEAD_J@Z 00000001800145e0     EOH.obj
 0002:000075ec       $chain$0$?setbuf@?$basic_filebuf@DU?$char_traits@D@std@@@std@@MEAAPEAV?$basic_streambuf@DU?$char_traits@D@std@@@2@PEAD_J@Z 00000001800145ec     EOH.obj
 0002:00007600       $chain$1$?setbuf@?$basic_filebuf@DU?$char_traits@D@std@@@std@@MEAAPEAV?$basic_streambuf@DU?$char_traits@D@std@@@2@PEAD_J@Z 0000000180014600     EOH.obj
 0002:00007610       $unwind$?seekpos@?$basic_filebuf@DU?$char_traits@D@std@@@std@@MEAA?AV?$fpos@U_Mbstatet@@@2@V32@H@Z 0000000180014610     EOH.obj
 0002:00007624       $unwind$?seekoff@?$basic_filebuf@DU?$char_traits@D@std@@@std@@MEAA?AV?$fpos@U_Mbstatet@@@2@_JHH@Z 0000000180014624     EOH.obj
 0002:00007638       $unwind$?uflow@?$basic_filebuf@DU?$char_traits@D@std@@@std@@MEAAHXZ 0000000180014638     EOH.obj
 0002:0000765c       $stateUnwindMap$?overflow@?$basic_filebuf@DU?$char_traits@D@std@@@std@@MEAAHH@Z 000000018001465c     EOH.obj
 0002:0000765c       $stateUnwindMap$?uflow@?$basic_filebuf@DU?$char_traits@D@std@@@std@@MEAAHXZ 000000018001465c     EOH.obj
 0002:00007668       $ip2state$?uflow@?$basic_filebuf@DU?$char_traits@D@std@@@std@@MEAAHXZ 0000000180014668     EOH.obj
 0002:00007680       $chain$0$?underflow@?$basic_filebuf@DU?$char_traits@D@std@@@std@@MEAAHXZ 0000000180014680     EOH.obj
 0002:00007694       $chain$2$?underflow@?$basic_filebuf@DU?$char_traits@D@std@@@std@@MEAAHXZ 0000000180014694     EOH.obj
 0002:000076a8       $unwind$?overflow@?$basic_filebuf@DU?$char_traits@D@std@@@std@@MEAAHH@Z 00000001800146a8     EOH.obj
 0002:000076d0       $ip2state$?overflow@?$basic_filebuf@DU?$char_traits@D@std@@@std@@MEAAHH@Z 00000001800146d0     EOH.obj
 0002:000076e8       $unwind$??_G?$basic_filebuf@DU?$char_traits@D@std@@@std@@UEAAPEAXI@Z 00000001800146e8     EOH.obj
 0002:00007700       $ip2state$??_G?$basic_filebuf@DU?$char_traits@D@std@@@std@@UEAAPEAXI@Z 0000000180014700     EOH.obj
 0002:00007718       $unwind$?resize@?$basic_string@DU?$char_traits@D@std@@V?$allocator@D@2@@std@@QEAAX_KD@Z 0000000180014718     EOH.obj
 0002:00007718       $unwind$?_Tidy@?$vector@UpositionStruct@@V?$allocator@UpositionStruct@@@std@@@std@@AEAAXXZ 0000000180014718     EOH.obj
 0002:00007724       $chain$0$?_Tidy@?$vector@UpositionStruct@@V?$allocator@UpositionStruct@@@std@@@std@@AEAAXXZ 0000000180014724     EOH.obj
 0002:00007738       $chain$1$?_Tidy@?$vector@UpositionStruct@@V?$allocator@UpositionStruct@@@std@@@std@@AEAAXXZ 0000000180014738     EOH.obj
 0002:00007748       $unwind$??1sentry@?$basic_ostream@DU?$char_traits@D@std@@@std@@QEAA@XZ 0000000180014748     EOH.obj
 0002:00007758       $ip2state$??1sentry@?$basic_ostream@DU?$char_traits@D@std@@@std@@QEAA@XZ 0000000180014758     EOH.obj
 0002:00007770       $unwind$?_Endwrite@?$basic_filebuf@DU?$char_traits@D@std@@@std@@IEAA_NXZ 0000000180014770     EOH.obj
 0002:00007790       $stateUnwindMap$?_Endwrite@?$basic_filebuf@DU?$char_traits@D@std@@@std@@IEAA_NXZ 0000000180014790     EOH.obj
 0002:00007798       $ip2state$?_Endwrite@?$basic_filebuf@DU?$char_traits@D@std@@@std@@IEAA_NXZ 0000000180014798     EOH.obj
 0002:000077b0       $unwind$??1_Sentry_base@?$basic_ostream@DU?$char_traits@D@std@@@std@@QEAA@XZ 00000001800147b0     EOH.obj
 0002:000077b0       $unwind$??1_Sentry_base@?$basic_istream@DU?$char_traits@D@std@@@std@@QEAA@XZ 00000001800147b0     EOH.obj
 0002:000077c0       $ip2state$??1_Sentry_base@?$basic_istream@DU?$char_traits@D@std@@@std@@QEAA@XZ 00000001800147c0     EOH.obj
 0002:000077c0       $ip2state$??1_Sentry_base@?$basic_ostream@DU?$char_traits@D@std@@@std@@QEAA@XZ 00000001800147c0     EOH.obj
 0002:000077c8       $unwind$?open@?$basic_filebuf@DU?$char_traits@D@std@@@std@@QEAAPEAV12@PEBDHH@Z 00000001800147c8     EOH.obj
 0002:000077e0       $stateUnwindMap$?open@?$basic_filebuf@DU?$char_traits@D@std@@@std@@QEAAPEAV12@PEBDHH@Z 00000001800147e0     EOH.obj
 0002:000077f0       $ip2state$?open@?$basic_filebuf@DU?$char_traits@D@std@@@std@@QEAAPEAV12@PEBDHH@Z 00000001800147f0     EOH.obj
 0002:00007810       $unwind$??$?6U?$char_traits@D@std@@@std@@YAAEAV?$basic_ostream@DU?$char_traits@D@std@@@0@AEAV10@PEBD@Z 0000000180014810     EOH.obj
 0002:00007828       $stateUnwindMap$??$?6U?$char_traits@D@std@@@std@@YAAEAV?$basic_ostream@DU?$char_traits@D@std@@@0@AEAV10@PEBD@Z 0000000180014828     EOH.obj
 0002:00007858       $tryMap$??$?6U?$char_traits@D@std@@@std@@YAAEAV?$basic_ostream@DU?$char_traits@D@std@@@0@AEAV10@PEBD@Z 0000000180014858     EOH.obj
 0002:0000786c       $handlerMap$0$??$?6U?$char_traits@D@std@@@std@@YAAEAV?$basic_ostream@DU?$char_traits@D@std@@@0@AEAV10@PEBD@Z 000000018001486c     EOH.obj
 0002:00007880       $ip2state$??$?6U?$char_traits@D@std@@@std@@YAAEAV?$basic_ostream@DU?$char_traits@D@std@@@0@AEAV10@PEBD@Z 0000000180014880     EOH.obj
 0002:000078d8       $unwind$?catch$9@?0???$?6U?$char_traits@D@std@@@std@@YAAEAV?$basic_ostream@DU?$char_traits@D@std@@@0@AEAV10@PEBD@Z@4HA 00000001800148d8     EOH.obj
 0002:000078e8       $unwind$??$?HDU?$char_traits@D@std@@V?$allocator@D@1@@std@@YA?AV?$basic_string@DU?$char_traits@D@std@@V?$allocator@D@2@@0@QEBD$$QEAV10@@Z 00000001800148e8     EOH.obj
 0002:000078e8       $unwind$??$?HDU?$char_traits@D@std@@V?$allocator@D@1@@std@@YA?AV?$basic_string@DU?$char_traits@D@std@@V?$allocator@D@2@@0@$$QEAV10@QEBD@Z 00000001800148e8     EOH.obj
 0002:000078f4       $unwind$??$?HDU?$char_traits@D@std@@V?$allocator@D@1@@std@@YA?AV?$basic_string@DU?$char_traits@D@std@@V?$allocator@D@2@@0@AEBV10@QEBD@Z 00000001800148f4     EOH.obj
 0002:0000790c       $stateUnwindMap$??$?HDU?$char_traits@D@std@@V?$allocator@D@1@@std@@YA?AV?$basic_string@DU?$char_traits@D@std@@V?$allocator@D@2@@0@AEBV10@QEBD@Z 000000018001490c     EOH.obj
 0002:0000790c       $stateUnwindMap$?CreateTitle@@YA?AV?$basic_string@DU?$char_traits@D@std@@V?$allocator@D@2@@std@@AEBQEBDAEB_K@Z 000000018001490c     MainDialog.obj
 0002:00007918       $ip2state$??$?HDU?$char_traits@D@std@@V?$allocator@D@1@@std@@YA?AV?$basic_string@DU?$char_traits@D@std@@V?$allocator@D@2@@0@AEBV10@QEBD@Z 0000000180014918     EOH.obj
 0002:00007928       $unwind$??$?HDU?$char_traits@D@std@@V?$allocator@D@1@@std@@YA?AV?$basic_string@DU?$char_traits@D@std@@V?$allocator@D@2@@0@$$QEAV10@0@Z 0000000180014928     EOH.obj
 0002:00007928       $unwind$??$?HDU?$char_traits@D@std@@V?$allocator@D@1@@std@@YA?AV?$basic_string@DU?$char_traits@D@std@@V?$allocator@D@2@@0@AEBV10@$$QEAV10@@Z 0000000180014928     EOH.obj
 0002:00007934       $unwind$??$emplace_back@AEBUpositionStruct@@@?$vector@UpositionStruct@@V?$allocator@UpositionStruct@@@std@@@std@@QEAAXAEBUpositionStruct@@@Z 0000000180014934     EOH.obj
 0002:00007950       $stateUnwindMap$??$emplace_back@AEBUpositionStruct@@@?$vector@UpositionStruct@@V?$allocator@UpositionStruct@@@std@@@std@@QEAAXAEBUpositionStruct@@@Z 0000000180014950     EOH.obj
 0002:00007970       $tryMap$??$emplace_back@AEBUpositionStruct@@@?$vector@UpositionStruct@@V?$allocator@UpositionStruct@@@std@@@std@@QEAAXAEBUpositionStruct@@@Z 0000000180014970     EOH.obj
 0002:00007984       $handlerMap$0$??$emplace_back@AEBUpositionStruct@@@?$vector@UpositionStruct@@V?$allocator@UpositionStruct@@@std@@@std@@QEAAXAEBUpositionStruct@@@Z 0000000180014984     EOH.obj
 0002:000079a0       $ip2state$??$emplace_back@AEBUpositionStruct@@@?$vector@UpositionStruct@@V?$allocator@UpositionStruct@@@std@@@std@@QEAAXAEBUpositionStruct@@@Z 00000001800149a0     EOH.obj
 0002:000079e8       $unwind$?catch$89@?0???$emplace_back@AEBUpositionStruct@@@?$vector@UpositionStruct@@V?$allocator@UpositionStruct@@@std@@@std@@QEAAXAEBUpositionStruct@@@Z@4HA 00000001800149e8     EOH.obj
 0002:000079fc       $unwind$??$emplace_back@AEBQEAVSecurity@@@?$vector@PEAVSecurity@@V?$allocator@PEAVSecurity@@@std@@@std@@QEAAXAEBQEAVSecurity@@@Z 00000001800149fc     EOH.obj
 0002:00007a08       $chain$2$??$emplace_back@AEBQEAVSecurity@@@?$vector@PEAVSecurity@@V?$allocator@PEAVSecurity@@@std@@@std@@QEAAXAEBQEAVSecurity@@@Z 0000000180014a08     EOH.obj
 0002:00007a24       $chain$4$??$emplace_back@AEBQEAVSecurity@@@?$vector@PEAVSecurity@@V?$allocator@PEAVSecurity@@@std@@@std@@QEAAXAEBQEAVSecurity@@@Z 0000000180014a24     EOH.obj
 0002:00007a40       $chain$5$??$emplace_back@AEBQEAVSecurity@@@?$vector@PEAVSecurity@@V?$allocator@PEAVSecurity@@@std@@@std@@QEAAXAEBQEAVSecurity@@@Z 0000000180014a40     EOH.obj
 0002:00007a50       $unwind$??$use_facet@V?$codecvt@DDU_Mbstatet@@@std@@@std@@YAAEBV?$codecvt@DDU_Mbstatet@@@0@AEBVlocale@0@@Z 0000000180014a50     EOH.obj
 0002:00007a68       $stateUnwindMap$??$use_facet@V?$codecvt@DDU_Mbstatet@@@std@@@std@@YAAEBV?$codecvt@DDU_Mbstatet@@@0@AEBVlocale@0@@Z 0000000180014a68     EOH.obj
 0002:00007a70       $ip2state$??$use_facet@V?$codecvt@DDU_Mbstatet@@@std@@@std@@YAAEBV?$codecvt@DDU_Mbstatet@@@0@AEBVlocale@0@@Z 0000000180014a70     EOH.obj
 0002:00007a88       $unwind$?_Change_array@?$vector@UpositionStruct@@V?$allocator@UpositionStruct@@@std@@@std@@AEAAXQEAUpositionStruct@@_K1@Z 0000000180014a88     EOH.obj
 0002:00007a9c       $chain$0$?_Change_array@?$vector@UpositionStruct@@V?$allocator@UpositionStruct@@@std@@@std@@AEAAXQEAUpositionStruct@@_K1@Z 0000000180014a9c     EOH.obj
 0002:00007ab0       $chain$1$?_Change_array@?$vector@UpositionStruct@@V?$allocator@UpositionStruct@@@std@@@std@@AEAAXQEAUpositionStruct@@_K1@Z 0000000180014ab0     EOH.obj
 0002:00007ac0       $unwind$__scrt_dllmain_exception_filter 0000000180014ac0     msvcrt:utility.obj
 0002:00007ac0       $unwind$?_Change_array@?$vector@PEAVSecurity@@V?$allocator@PEAVSecurity@@@std@@@std@@AEAAXQEAPEAVSecurity@@_K1@Z 0000000180014ac0     EOH.obj
 0002:00007ac0       $unwind$?dllmain_raw@@YAHQEAUHINSTANCE__@@KQEAX@Z 0000000180014ac0     msvcrt:dll_dllmain.obj
 0002:00007ac0       $unwind$_RawDllMainProxy   0000000180014ac0     mfcs140:rawdllmainproxy.obj
 0002:00007ac0       $unwind$AddMenuItemToString 0000000180014ac0     ExtensionSample.obj
 0002:00007ad4       $unwind$?insert@?$basic_string@DU?$char_traits@D@std@@V?$allocator@D@2@@std@@QEAAAEAV12@_KQEBD0@Z 0000000180014ad4     EOH.obj
 0002:00007ae4       $chain$0$?insert@?$basic_string@DU?$char_traits@D@std@@V?$allocator@D@2@@std@@QEAAAEAV12@_KQEBD0@Z 0000000180014ae4     EOH.obj
 0002:00007af8       $chain$1$?insert@?$basic_string@DU?$char_traits@D@std@@V?$allocator@D@2@@std@@QEAAAEAV12@_KQEBD0@Z 0000000180014af8     EOH.obj
 0002:00007b08       $unwind$?insert@?$basic_string@DU?$char_traits@D@std@@V?$allocator@D@2@@std@@QEAAAEAV12@_KAEBV12@0_K@Z 0000000180014b08     EOH.obj
 0002:00007b18       $chain$0$?insert@?$basic_string@DU?$char_traits@D@std@@V?$allocator@D@2@@std@@QEAAAEAV12@_KAEBV12@0_K@Z 0000000180014b18     EOH.obj
 0002:00007b2c       $chain$1$?insert@?$basic_string@DU?$char_traits@D@std@@V?$allocator@D@2@@std@@QEAAAEAV12@_KAEBV12@0_K@Z 0000000180014b2c     EOH.obj
 0002:00007b40       $chain$3$?insert@?$basic_string@DU?$char_traits@D@std@@V?$allocator@D@2@@std@@QEAAAEAV12@_KAEBV12@0_K@Z 0000000180014b40     EOH.obj
 0002:00007b50       $chain$4$?insert@?$basic_string@DU?$char_traits@D@std@@V?$allocator@D@2@@std@@QEAAAEAV12@_KAEBV12@0_K@Z 0000000180014b50     EOH.obj
 0002:00007b64       $unwind$??$_Insert_string@DU?$char_traits@D@std@@_K@std@@YAAEAV?$basic_ostream@DU?$char_traits@D@std@@@0@AEAV10@QEBD_K@Z 0000000180014b64     EOH.obj
 0002:00007b80       $stateUnwindMap$??$_Insert_string@DU?$char_traits@D@std@@_K@std@@YAAEAV?$basic_ostream@DU?$char_traits@D@std@@@0@AEAV10@QEBD_K@Z 0000000180014b80     EOH.obj
 0002:00007bb0       $tryMap$??$_Insert_string@DU?$char_traits@D@std@@_K@std@@YAAEAV?$basic_ostream@DU?$char_traits@D@std@@@0@AEAV10@QEBD_K@Z 0000000180014bb0     EOH.obj
 0002:00007bc4       $handlerMap$0$??$_Insert_string@DU?$char_traits@D@std@@_K@std@@YAAEAV?$basic_ostream@DU?$char_traits@D@std@@@0@AEAV10@QEBD_K@Z 0000000180014bc4     EOH.obj
 0002:00007be0       $ip2state$??$_Insert_string@DU?$char_traits@D@std@@_K@std@@YAAEAV?$basic_ostream@DU?$char_traits@D@std@@@0@AEAV10@QEBD_K@Z 0000000180014be0     EOH.obj
 0002:00007c38       $unwind$?catch$8@?0???$_Insert_string@DU?$char_traits@D@std@@_K@std@@YAAEAV?$basic_ostream@DU?$char_traits@D@std@@@0@AEAV10@QEBD_K@Z@4HA 0000000180014c38     EOH.obj
 0002:00007c48       $unwind$??$getline@DU?$char_traits@D@std@@V?$allocator@D@2@@std@@YAAEAV?$basic_istream@DU?$char_traits@D@std@@@0@$$QEAV10@AEAV?$basic_string@DU?$char_traits@D@std@@V?$allocator@D@2@@0@D@Z 0000000180014c48     EOH.obj
 0002:00007c68       $stateUnwindMap$??$getline@DU?$char_traits@D@std@@V?$allocator@D@2@@std@@YAAEAV?$basic_istream@DU?$char_traits@D@std@@@0@$$QEAV10@AEAV?$basic_string@DU?$char_traits@D@std@@V?$allocator@D@2@@0@D@Z 0000000180014c68     EOH.obj
 0002:00007c90       $tryMap$??$getline@DU?$char_traits@D@std@@V?$allocator@D@2@@std@@YAAEAV?$basic_istream@DU?$char_traits@D@std@@@0@$$QEAV10@AEAV?$basic_string@DU?$char_traits@D@std@@V?$allocator@D@2@@0@D@Z 0000000180014c90     EOH.obj
 0002:00007ca4       $handlerMap$0$??$getline@DU?$char_traits@D@std@@V?$allocator@D@2@@std@@YAAEAV?$basic_istream@DU?$char_traits@D@std@@@0@$$QEAV10@AEAV?$basic_string@DU?$char_traits@D@std@@V?$allocator@D@2@@0@D@Z 0000000180014ca4     EOH.obj
 0002:00007cc0       $ip2state$??$getline@DU?$char_traits@D@std@@V?$allocator@D@2@@std@@YAAEAV?$basic_istream@DU?$char_traits@D@std@@@0@$$QEAV10@AEAV?$basic_string@DU?$char_traits@D@std@@V?$allocator@D@2@@0@D@Z 0000000180014cc0     EOH.obj
 0002:00007d20       $unwind$?catch$35@?0???$getline@DU?$char_traits@D@std@@V?$allocator@D@2@@std@@YAAEAV?$basic_istream@DU?$char_traits@D@std@@@0@$$QEAV10@AEAV?$basic_string@DU?$char_traits@D@std@@V?$allocator@D@2@@0@D@Z@4HA 0000000180014d20     EOH.obj
 0002:00007d30       $unwind$??1sentry@?$basic_istream@DU?$char_traits@D@std@@@std@@QEAA@XZ 0000000180014d30     EOH.obj
 0002:00007d40       $ip2state$??1sentry@?$basic_istream@DU?$char_traits@D@std@@@std@@QEAA@XZ 0000000180014d40     EOH.obj
 0002:00007d58       $unwind$?append@?$basic_string@DU?$char_traits@D@std@@V?$allocator@D@2@@std@@QEAAAEAV12@QEBD_K@Z 0000000180014d58     EOH.obj
 0002:00007d68       $chain$0$?append@?$basic_string@DU?$char_traits@D@std@@V?$allocator@D@2@@std@@QEAAAEAV12@QEBD_K@Z 0000000180014d68     EOH.obj
 0002:00007d7c       $chain$1$?append@?$basic_string@DU?$char_traits@D@std@@V?$allocator@D@2@@std@@QEAAAEAV12@QEBD_K@Z 0000000180014d7c     EOH.obj
 0002:00007d8c       $unwind$??1locale@std@@QEAA@XZ 0000000180014d8c     EOH.obj
 0002:00007da0       $ip2state$??1locale@std@@QEAA@XZ 0000000180014da0     EOH.obj
 0002:00007da8       $unwind$_scprintf          0000000180014da8     EOH.obj
 0002:00007db4       $unwind$sprintf_s          0000000180014db4     EOH.obj
 0002:00007dc4       $chain$0$?resize@?$basic_string@DU?$char_traits@D@std@@V?$allocator@D@2@@std@@QEAAX_KD@Z 0000000180014dc4     EOH.obj
 0002:00007dd8       $chain$2$?resize@?$basic_string@DU?$char_traits@D@std@@V?$allocator@D@2@@std@@QEAAX_KD@Z 0000000180014dd8     EOH.obj
 0002:00007dec       $chain$3$?resize@?$basic_string@DU?$char_traits@D@std@@V?$allocator@D@2@@std@@QEAAX_KD@Z 0000000180014dec     EOH.obj
 0002:00007dfc       $unwind$??$_Floating_to_string@N@std@@YA?AV?$basic_string@DU?$char_traits@D@std@@V?$allocator@D@2@@0@PEBDN@Z 0000000180014dfc     EOH.obj
 0002:00007e18       $stateUnwindMap$??$_Floating_to_string@N@std@@YA?AV?$basic_string@DU?$char_traits@D@std@@V?$allocator@D@2@@0@PEBDN@Z 0000000180014e18     EOH.obj
 0002:00007e20       $ip2state$??$_Floating_to_string@N@std@@YA?AV?$basic_string@DU?$char_traits@D@std@@V?$allocator@D@2@@0@PEBDN@Z 0000000180014e20     EOH.obj
 0002:00007e30       $unwind$?to_string@std@@YA?AV?$basic_string@DU?$char_traits@D@std@@V?$allocator@D@2@@1@N@Z 0000000180014e30     EOH.obj
 0002:00007e30       $unwind$GetTakionExtensionMenu 0000000180014e30     ExtensionSample.obj
 0002:00007e30       $unwind$?to_string@std@@YA?AV?$basic_string@DU?$char_traits@D@std@@V?$allocator@D@2@@1@I@Z 0000000180014e30     EOH.obj
 0002:00007e38       $unwind$?append@?$basic_string@DU?$char_traits@D@std@@V?$allocator@D@2@@std@@QEAAAEAV12@AEBV12@_K_K@Z 0000000180014e38     EOH.obj
 0002:00007e4c       $chain$0$?append@?$basic_string@DU?$char_traits@D@std@@V?$allocator@D@2@@std@@QEAAAEAV12@AEBV12@_K_K@Z 0000000180014e4c     EOH.obj
 0002:00007e60       $chain$1$?append@?$basic_string@DU?$char_traits@D@std@@V?$allocator@D@2@@std@@QEAAAEAV12@AEBV12@_K_K@Z 0000000180014e60     EOH.obj
 0002:00007e70       $unwind$??$_Integral_to_string@DI@std@@YA?AV?$basic_string@DU?$char_traits@D@std@@V?$allocator@D@2@@0@I@Z 0000000180014e70     EOH.obj
 0002:00007e80       $unwind$?assign@?$basic_string@DU?$char_traits@D@std@@V?$allocator@D@2@@std@@QEAAAEAV12@AEBV12@_K_K@Z 0000000180014e80     EOH.obj
 0002:00007e94       $unwind$?_Copy@?$basic_string@DU?$char_traits@D@std@@V?$allocator@D@2@@std@@QEAAX_K@Z 0000000180014e94     EOH.obj
 0002:00007eac       $stateUnwindMap$?_Copy@?$basic_string@DU?$char_traits@D@std@@V?$allocator@D@2@@std@@QEAAX_K@Z 0000000180014eac     EOH.obj
 0002:00007ebc       $tryMap$?_Copy@?$basic_string@DU?$char_traits@D@std@@V?$allocator@D@2@@std@@QEAAX_K@Z 0000000180014ebc     EOH.obj
 0002:00007ed0       $handlerMap$0$?_Copy@?$basic_string@DU?$char_traits@D@std@@V?$allocator@D@2@@std@@QEAAX_K@Z 0000000180014ed0     EOH.obj
 0002:00007ee8       $ip2state$?_Copy@?$basic_string@DU?$char_traits@D@std@@V?$allocator@D@2@@std@@QEAAX_K@Z 0000000180014ee8     EOH.obj
 0002:00007f18       $unwind$?catch$16@?0??_Copy@?$basic_string@DU?$char_traits@D@std@@V?$allocator@D@2@@std@@QEAAX_K@Z@4HA 0000000180014f18     EOH.obj
 0002:00007f28       $unwind$??0ExtensionDerivedConfig@@QEAA@XZ 0000000180014f28     ExtensionDerivedConfig.obj
 0002:00007f40       $stateUnwindMap$??0ExtensionDerivedConfig@@QEAA@XZ 0000000180014f40     ExtensionDerivedConfig.obj
 0002:00007fa0       $ip2state$??0ExtensionDerivedConfig@@QEAA@XZ 0000000180014fa0     ExtensionDerivedConfig.obj
 0002:00008000       $unwind$?Clone@ExtensionDerivedConfig@@UEBAPEAVConfigBase@@XZ 0000000180015000     ExtensionDerivedConfig.obj
 0002:00008014       $stateUnwindMap$?Clone@ExtensionDerivedConfig@@UEBAPEAVConfigBase@@XZ 0000000180015014     ExtensionDerivedConfig.obj
 0002:00008020       $ip2state$?Clone@ExtensionDerivedConfig@@UEBAPEAVConfigBase@@XZ 0000000180015020     ExtensionDerivedConfig.obj
 0002:00008038       $unwind$ExecuteTakionCommand 0000000180015038     ExtensionSample.obj
 0002:00008058       $unwind$??__EafxModuleState@@YAXXZ 0000000180015058     mfcs140:dllmodul.obj
 0002:00008058       $unwind$ExtensionInitialize 0000000180015058     ExtensionSample.obj
 0002:00008060       $chain$1$ExtensionInitialize 0000000180015060     ExtensionSample.obj
 0002:00008078       $chain$2$ExtensionInitialize 0000000180015078     ExtensionSample.obj
 0002:00008088       $unwind$?InitInstance@ExtensionSample@@UEAAHXZ 0000000180015088     ExtensionSample.obj
 0002:000080a0       $unwind$?CreateTitle@@YA?AV?$basic_string@DU?$char_traits@D@std@@V?$allocator@D@2@@std@@AEBQEBDAEB_K@Z 00000001800150a0     MainDialog.obj
 0002:000080b8       $ip2state$?CreateTitle@@YA?AV?$basic_string@DU?$char_traits@D@std@@V?$allocator@D@2@@std@@AEBQEBDAEB_K@Z 00000001800150b8     MainDialog.obj
 0002:000080c8       $unwind$??0MainDialog@@QEAA@PEBD_K0@Z 00000001800150c8     MainDialog.obj
 0002:000080e8       $stateUnwindMap$??0MainDialog@@QEAA@PEBD_K0@Z 00000001800150e8     MainDialog.obj
 0002:000080f0       $ip2state$??0MainDialog@@QEAA@PEBD_K0@Z 00000001800150f0     MainDialog.obj
 0002:00008108       $unwind$?OnInitDialog@MainDialog@@MEAAHXZ 0000000180015108     MainDialog.obj
 0002:00008124       $stateUnwindMap$?OnInitDialog@MainDialog@@MEAAHXZ 0000000180015124     MainDialog.obj
 0002:00008138       $ip2state$?OnInitDialog@MainDialog@@MEAAHXZ 0000000180015138     MainDialog.obj
 0002:00008160       $unwind$?AfxWndProcDllStatic@@YA_JPEAUHWND__@@I_K_J@Z 0000000180015160     mfcs140:dllmodul.obj
 0002:0000817c       $stateUnwindMap$?AfxWndProcDllStatic@@YA_JPEAUHWND__@@I_K_J@Z 000000018001517c     mfcs140:dllmodul.obj
 0002:00008188       $ip2state$?AfxWndProcDllStatic@@YA_JPEAUHWND__@@I_K_J@Z 0000000180015188     mfcs140:dllmodul.obj
 0002:000081a0       $unwind$InternalDllMain    00000001800151a0     mfcs140:dllmodul.obj
 0002:000081b8       $stateUnwindMap$InternalDllMain 00000001800151b8     mfcs140:dllmodul.obj
 0002:000081d8       $tryMap$InternalDllMain    00000001800151d8     mfcs140:dllmodul.obj
 0002:000081ec       $handlerMap$0$InternalDllMain 00000001800151ec     mfcs140:dllmodul.obj
 0002:00008200       $ip2state$InternalDllMain  0000000180015200     mfcs140:dllmodul.obj
 0002:00008248       $unwind$InternalDllMain$catch$2 0000000180015248     mfcs140:dllmodul.obj
 0002:00008260       $xdatasym                  0000000180015260     msvcrt:_amdsecgs_.obj
 0002:00008264       $unwind$__scrt_is_nonwritable_in_current_image 0000000180015264     msvcrt:utility.obj
 0002:00008284       $unwind$__scrt_initialize_onexit_tables 0000000180015284     msvcrt:utility.obj
 0002:00008290       $unwind$?dllmain_crt_process_attach@@YAHQEAUHINSTANCE__@@QEAX@Z 0000000180015290     msvcrt:dll_dllmain.obj
 0002:000082bc       $unwind$?dllmain_crt_process_detach@@YAH_N@Z 00000001800152bc     msvcrt:dll_dllmain.obj
 0002:000082e4       $unwind$?dllmain_dispatch@@YAHQEAUHINSTANCE__@@KQEAX@Z 00000001800152e4     msvcrt:dll_dllmain.obj
 0002:0000830c       $unwind$?filt$0@?0??dllmain_dispatch@@YAHQEAUHINSTANCE__@@KQEAX@Z@4HA 000000018001530c     msvcrt:dll_dllmain.obj
 0002:00008314       $unwind$__report_gsfailure 0000000180015314     msvcrt:gs_report.obj
 0002:0000831c       $unwind$capture_previous_context 000000018001531c     msvcrt:gs_report.obj
 0002:00008328       $unwind$__isa_available_init 0000000180015328     msvcrt:_cpu_disp_.obj
 0002:0000833c       $unwind$__scrt_fastfail    000000018001533c     msvcrt:utility_desktop.obj
 0002:0000834c       $unwind$__security_init_cookie 000000018001534c     msvcrt:gs_support.obj
 0002:00008358       $unwind$__GSHandlerCheckCommon 0000000180015358     msvcrt:_gshandler_.obj
 0002:00008360       $xdatasym                  0000000180015360     msvcrt:_guard_dispatch_.obj
 0002:00008364       $unwind$??_G_Fac_node@std@@QEAAPEAXI@Z 0000000180015364     msvcprt:locale0_implib.obj
 0002:00008380       $ip2state$??_G_Fac_node@std@@QEAAPEAXI@Z 0000000180015380     msvcprt:locale0_implib.obj
 0002:00008398       $unwind$_IsNonwritableInCurrentImage 0000000180015398     mfcs140:rawdllmainproxy.obj
 0002:000083b8       $unwind$__scrt_is_nonwritable_in_current_image$filt$0 00000001800153b8     msvcrt:utility.obj
 0002:000083b8       $unwind$_IsNonwritableInCurrentImage$filt$0 00000001800153b8     mfcs140:rawdllmainproxy.obj
 0002:000083c0       $unwind$__GSHandlerCheck_EH 00000001800153c0     msvcrt:gshandlereh.obj
 0002:00008460       .edata                     0000000180015460     ExtensionSample.exp
 0002:00008488       rgpv                       0000000180015488     ExtensionSample.exp
 0002:00008558       rgszName                   0000000180015558     ExtensionSample.exp
 0002:00008624       rgwOrd                     0000000180015624     ExtensionSample.exp
 0002:0000868a       szName                     000000018001568a     ExtensionSample.exp
 0002:0000869e       $N00029                    000000018001569e     ExtensionSample.exp
 0002:000086b1       $N00031                    00000001800156b1     ExtensionSample.exp
 0002:000086be       $N00048                    00000001800156be     ExtensionSample.exp
 0002:000086d3       $N00030                    00000001800156d3     ExtensionSample.exp
 0002:000086e5       $N00024                    00000001800156e5     ExtensionSample.exp
 0002:000086fa       $N00003                    00000001800156fa     ExtensionSample.exp
 0002:0000870e       $N00050                    000000018001570e     ExtensionSample.exp
 0002:0000871f       $N00004                    000000018001571f     ExtensionSample.exp
 0002:00008732       $N00002                    0000000180015732     ExtensionSample.exp
 0002:00008743       $N00047                    0000000180015743     ExtensionSample.exp
 0002:00008754       $N00005                    0000000180015754     ExtensionSample.exp
 0002:00008768       $N00036                    0000000180015768     ExtensionSample.exp
 0002:0000877a       $N00019                    000000018001577a     ExtensionSample.exp
 0002:00008793       $N00018                    0000000180015793     ExtensionSample.exp
 0002:000087a6       $N00021                    00000001800157a6     ExtensionSample.exp
 0002:000087bf       $N00015                    00000001800157bf     ExtensionSample.exp
 0002:000087da       $N00014                    00000001800157da     ExtensionSample.exp
 0002:000087ef       $N00022                    00000001800157ef     ExtensionSample.exp
 0002:0000880d       $N00023                    000000018001580d     ExtensionSample.exp
 0002:00008824       $N00013                    0000000180015824     ExtensionSample.exp
 0002:0000883e       $N00012                    000000018001583e     ExtensionSample.exp
 0002:00008852       $N00017                    0000000180015852     ExtensionSample.exp
 0002:0000886c       $N00016                    000000018001586c     ExtensionSample.exp
 0002:00008880       $N00011                    0000000180015880     ExtensionSample.exp
 0002:0000889c       $N00010                    000000018001589c     ExtensionSample.exp
 0002:000088b2       $N00009                    00000001800158b2     ExtensionSample.exp
 0002:000088cb       $N00008                    00000001800158cb     ExtensionSample.exp
 0002:000088de       $N00007                    00000001800158de     ExtensionSample.exp
 0002:000088f4       $N00006                    00000001800158f4     ExtensionSample.exp
 0002:00008904       $N00025                    0000000180015904     ExtensionSample.exp
 0002:00008918       $N00049                    0000000180015918     ExtensionSample.exp
 0002:00008926       $N00046                    0000000180015926     ExtensionSample.exp
 0002:00008938       $N00051                    0000000180015938     ExtensionSample.exp
 0002:00008959       $N00052                    0000000180015959     ExtensionSample.exp
 0002:0000896d       $N00040                    000000018001596d     ExtensionSample.exp
 0002:00008982       $N00041                    0000000180015982     ExtensionSample.exp
 0002:0000899b       $N00039                    000000018001599b     ExtensionSample.exp
 0002:000089b3       $N00045                    00000001800159b3     ExtensionSample.exp
 0002:000089d4       $N00043                    00000001800159d4     ExtensionSample.exp
 0002:000089f4       $N00042                    00000001800159f4     ExtensionSample.exp
 0002:00008a0e       $N00038                    0000000180015a0e     ExtensionSample.exp
 0002:00008a1c       $N00053                    0000000180015a1c     ExtensionSample.exp
 0002:00008a2b       $N00044                    0000000180015a2b     ExtensionSample.exp
 0002:00008a44       $N00034                    0000000180015a44     ExtensionSample.exp
 0002:00008a4f       $N00035                    0000000180015a4f     ExtensionSample.exp
 0002:00008a5d       $N00032                    0000000180015a5d     ExtensionSample.exp
 0002:00008a68       $N00033                    0000000180015a68     ExtensionSample.exp
 0002:00008a75       $N00027                    0000000180015a75     ExtensionSample.exp
 0002:00008a87       $N00026                    0000000180015a87     ExtensionSample.exp
 0002:00008a9c       $N00037                    0000000180015a9c     ExtensionSample.exp
 0002:00008ab6       $N00028                    0000000180015ab6     ExtensionSample.exp
 0002:0000a430       .idata$6                   0000000180017430     Observer:Observer.dll
 0002:0000a43e       .idata$6                   000000018001743e     TakionData:TakionData.dll
 0002:0000f56a       .idata$6                   000000018001c56a     UtilsGui:UtilsGui.dll
 0002:0000f67a       .idata$6                   000000018001c67a     TakionGui:TakionGui.dll
 0002:0000f6b6       .idata$6                   000000018001c6b6     TakionLog:TakionLog.dll
 0002:0000f756       .idata$6                   000000018001c756     TakionUtils:TakionUtils.dll
 0002:0000f832       .idata$6                   000000018001c832     Utils:Utils.dll
 0002:0000f83c       .idata$6                   000000018001c83c     mfc140:mfc140.dll
 0002:0000faa8       .idata$6                   000000018001caa8     kernel32:KERNEL32.dll
 0002:0000fad4       .idata$6                   000000018001cad4     user32:USER32.dll
 0002:000104bc       .idata$6                   000000018001d4bc     msvcprt:MSVCP140.dll
 0002:000105a0       .idata$6                   000000018001d5a0     vcruntime:VCRUNTIME140.dll
 0002:000107b6       .idata$6                   000000018001d7b6     ucrt:api-ms-win-crt-stdio-l1-1-0.dll
 0002:000107d6       .idata$6                   000000018001d7d6     ucrt:api-ms-win-crt-runtime-l1-1-0.dll
 0002:000107f8       .idata$6                   000000018001d7f8     ucrt:api-ms-win-crt-filesystem-l1-1-0.dll
 0002:0001081e       .idata$6                   000000018001d81e     ucrt:api-ms-win-crt-string-l1-1-0.dll
 0002:00010840       .idata$6                   000000018001d840     ucrt:api-ms-win-crt-heap-l1-1-0.dll
 0003:00000034       check                      000000018001e034     ExtensionSample.obj
 0003:00000850       ?afxModuleState@@3V_AFX_DLL_MODULE_STATE@@A 000000018001e850     mfcs140:dllmodul.obj
 0003:00000958       ?controlDLL@@3UAFX_EXTENSION_MODULE@@A 000000018001e958     mfcs140:dllmodul.obj
 0003:00000980       ?pafxModuleStatePrev@@3PEAVAFX_MODULE_STATE@@EA 000000018001e980     mfcs140:dllmodul.obj
 0003:00000994       ?module_local_atexit_table_initialized@@3_NA 000000018001e994     msvcrt:utility.obj
 0003:000009a0       ?module_local_atexit_table@@3U_onexit_table_t@@A 000000018001e9a0     msvcrt:utility.obj
 0003:000009b8       ?module_local_at_quick_exit_table@@3U_onexit_table_t@@A 000000018001e9b8     msvcrt:utility.obj
 0003:000009d0       ?is_initialized_as_dll@@3_NA 000000018001e9d0     msvcrt:utility.obj
 0003:000009d8       ?_Tss_mutex@@3U_RTL_CRITICAL_SECTION@@A 000000018001e9d8     msvcrt:thread_safe_statics.obj
 0003:00000a00       ?_Tss_cv@@3U_RTL_CONDITION_VARIABLE@@A 000000018001ea00     msvcrt:thread_safe_statics.obj
 0003:00000a08       ?_Tss_event@@3PEAXEA       000000018001ea08     msvcrt:thread_safe_statics.obj
 0003:00000a10       ?encoded_sleep_condition_variable_cs@@3P6AHPEAU_RTL_CONDITION_VARIABLE@@PEAU_RTL_CRITICAL_SECTION@@K@ZEA 000000018001ea10     msvcrt:thread_safe_statics.obj
 0003:00000a18       ?encoded_wake_all_condition_variable@@3P6AXPEAU_RTL_CONDITION_VARIABLE@@@ZEA 000000018001ea18     msvcrt:thread_safe_statics.obj
 0003:00000a20       ?__proc_attached@@3HA      000000018001ea20     msvcrt:dll_dllmain.obj
 0003:00000a30       GS_ExceptionRecord         000000018001ea30     msvcrt:gs_report.obj
 0003:00000ad0       GS_ContextRecord           000000018001ead0     msvcrt:gs_report.obj
 0003:00001038       ?_Fac_head@std@@3PEAU_Fac_node@1@EA 000000018001f038     msvcprt:locale0_implib.obj
 0003:00001040       ?_Fac_tidy_reg@std@@3U_Fac_tidy_reg_t@1@B 000000018001f040     msvcprt:locale0_implib.obj
 0003:00001058       ?messageMap@?1??GetThisMessageMap@EOH@@KAPEBUAFX_MSGMAP@@XZ@4U3@B 000000018001f058     EOH.obj
 0003:00001428       ?time@?1??WriteToTechLogFile@@YAXV?$basic_string@DU?$char_traits@D@std@@V?$allocator@D@2@@std@@@Z@4PADA 000000018001f428     EOH.obj
 0003:0000144c       ?$TSS0@?1??GetThisMessageMap@EOH@@KAPEBUAFX_MSGMAP@@XZ@4HA 000000018001f44c     EOH.obj
 0004:00000000       $pdata$??__EoutFile@@YAXXZ 0000000180020000     EOH.obj
 0004:0000000c       $pdata$??__EtheApp@@YAXXZ  000000018002000c     ExtensionSample.obj
 0004:00000018       $pdata$??__EafxModuleState@@YAXXZ 0000000180020018     mfcs140:dllmodul.obj
 0004:00000024       $pdata$??__E_AtlBaseModule@ATL@@YAXXZ 0000000180020024     atls:atlbase.obj
 0004:00000030       $pdata$?WriteToTechLogFile@@YAXV?$basic_string@DU?$char_traits@D@std@@V?$allocator@D@2@@std@@@Z 0000000180020030     EOH.obj
 0004:0000003c       $pdata$?isOpenInGapRange@@YA_NVPrice@@0@Z 000000018002003c     EOH.obj
 0004:00000048       $pdata$?GetCurrentDate@@YA?AV?$basic_string@DU?$char_traits@D@std@@V?$allocator@D@2@@std@@XZ 0000000180020048     EOH.obj
 0004:00000054       $pdata$?GetAccountById@@YAPEAVAccount@@PEBD@Z 0000000180020054     EOH.obj
 0004:00000060       $pdata$??0EOH@@QEAA@PEAVTakionMainWnd@@PEAVTakionSettingTabDialog@@@Z 0000000180020060     EOH.obj
 0004:0000006c       $pdata$??_GEOH@@UEAAPEAXI@Z 000000018002006c     EOH.obj
 0004:00000078       $pdata$??1EOH@@UEAA@XZ     0000000180020078     EOH.obj
 0004:00000084       $pdata$?Entering@EOH@@MEAAXXZ 0000000180020084     EOH.obj
 0004:00000090       $pdata$?Leaving@EOH@@MEAAXXZ 0000000180020090     EOH.obj
 0004:00000090       $pdata$?BeforeDestroy@EOH@@MEAAXXZ 0000000180020090     EOH.obj
 0004:0000009c       $pdata$?DoDataExchange@EOH@@MEAAXPEAVCDataExchange@@@Z 000000018002009c     EOH.obj
 0004:000000a8       $pdata$?GetMessageMap@EOH@@MEBAPEBUAFX_MSGMAP@@XZ 00000001800200a8     EOH.obj
 0004:000000b4       $pdata$?OnRun@EOH@@IEAAXXZ 00000001800200b4     EOH.obj
 0004:000000c0       $pdata$?OnStop@EOH@@IEAAXXZ 00000001800200c0     EOH.obj
 0004:000000cc       $pdata$?DoSubscribe@EOH@@IEAA_NXZ 00000001800200cc     EOH.obj
 0004:000000d8       $pdata$?OnInitDialog@EOH@@MEAAHXZ 00000001800200d8     EOH.obj
 0004:000000e4       $pdata$?Notify@EOH@@MEAAXPEBVMessage@@PEBVObservable@@0@Z 00000001800200e4     EOH.obj
 0004:000000f0       $pdata$?InitializeTickerList@EOH@@IEAAXXZ 00000001800200f0     EOH.obj
 0004:000000fc       $pdata$??_D?$basic_ifstream@DU?$char_traits@D@std@@@std@@QEAAXXZ 00000001800200fc     EOH.obj
 0004:00000108       $pdata$?InitializeTriggeredList@EOH@@IEAAXXZ 0000000180020108     EOH.obj
 0004:00000114       $pdata$?CheckLogic@EOH@@IEAAXXZ 0000000180020114     EOH.obj
 0004:00000120       $pdata$?SendOrder@EOH@@IEAAXPEAVSecurity@@DVPrice@@IE@Z 0000000180020120     EOH.obj
 0004:0000012c       $pdata$?GetStructBySymbol@EOH@@IEAA?AUpositionStruct@@V?$basic_string@DU?$char_traits@D@std@@V?$allocator@D@2@@std@@@Z 000000018002012c     EOH.obj
 0004:00000138       $pdata$?CheckPosition@EOH@@IEAAXXZ 0000000180020138     EOH.obj
 0004:00000144       $pdata$?CheckStopTargetOrders@EOH@@IEAAXPEAVPosition@@UpositionStruct@@@Z 0000000180020144     EOH.obj
 0004:00000150       $pdata$?CheckKeepPositionTimeExpired@EOH@@IEAAXPEAVPosition@@UpositionStruct@@@Z 0000000180020150     EOH.obj
 0004:0000015c       $pdata$?CheckOpenPositionTimeExpired@EOH@@IEAAXPEAVPosition@@UpositionStruct@@@Z 000000018002015c     EOH.obj
 0004:00000168       $pdata$?CheckIsTargetAlreadyReached@EOH@@IEAAXPEAVPosition@@UpositionStruct@@@Z 0000000180020168     EOH.obj
 0004:00000174       $pdata$??1?$basic_ofstream@DU?$char_traits@D@std@@@std@@UEAA@XZ 0000000180020174     EOH.obj
 0004:00000180       $pdata$??0?$basic_ofstream@DU?$char_traits@D@std@@@std@@QEAA@XZ 0000000180020180     EOH.obj
 0004:0000018c       $pdata$??1?$basic_ifstream@DU?$char_traits@D@std@@@std@@UEAA@XZ 000000018002018c     EOH.obj
 0004:00000198       $pdata$??0?$basic_ifstream@DU?$char_traits@D@std@@@std@@QEAA@XZ 0000000180020198     EOH.obj
 0004:000001a4       $pdata$?imbue@?$basic_filebuf@DU?$char_traits@D@std@@@std@@MEAAXAEBVlocale@2@@Z 00000001800201a4     EOH.obj
 0004:000001b0       $pdata$?sync@?$basic_filebuf@DU?$char_traits@D@std@@@std@@MEAAHXZ 00000001800201b0     EOH.obj
 0004:000001bc       $pdata$?setbuf@?$basic_filebuf@DU?$char_traits@D@std@@@std@@MEAAPEAV?$basic_streambuf@DU?$char_traits@D@std@@@2@PEAD_J@Z 00000001800201bc     EOH.obj
 0004:000001c8       $pdata$0$?setbuf@?$basic_filebuf@DU?$char_traits@D@std@@@std@@MEAAPEAV?$basic_streambuf@DU?$char_traits@D@std@@@2@PEAD_J@Z 00000001800201c8     EOH.obj
 0004:000001d4       $pdata$1$?setbuf@?$basic_filebuf@DU?$char_traits@D@std@@@std@@MEAAPEAV?$basic_streambuf@DU?$char_traits@D@std@@@2@PEAD_J@Z 00000001800201d4     EOH.obj
 0004:000001e0       $pdata$?seekpos@?$basic_filebuf@DU?$char_traits@D@std@@@std@@MEAA?AV?$fpos@U_Mbstatet@@@2@V32@H@Z 00000001800201e0     EOH.obj
 0004:000001ec       $pdata$?seekoff@?$basic_filebuf@DU?$char_traits@D@std@@@std@@MEAA?AV?$fpos@U_Mbstatet@@@2@_JHH@Z 00000001800201ec     EOH.obj
 0004:000001f8       $pdata$?uflow@?$basic_filebuf@DU?$char_traits@D@std@@@std@@MEAAHXZ 00000001800201f8     EOH.obj
 0004:00000204       $pdata$?underflow@?$basic_filebuf@DU?$char_traits@D@std@@@std@@MEAAHXZ 0000000180020204     EOH.obj
 0004:00000210       $pdata$0$?underflow@?$basic_filebuf@DU?$char_traits@D@std@@@std@@MEAAHXZ 0000000180020210     EOH.obj
 0004:0000021c       $pdata$2$?underflow@?$basic_filebuf@DU?$char_traits@D@std@@@std@@MEAAHXZ 000000018002021c     EOH.obj
 0004:00000228       $pdata$?pbackfail@?$basic_filebuf@DU?$char_traits@D@std@@@std@@MEAAHH@Z 0000000180020228     EOH.obj
 0004:00000234       $pdata$?overflow@?$basic_filebuf@DU?$char_traits@D@std@@@std@@MEAAHH@Z 0000000180020234     EOH.obj
 0004:00000240       $pdata$??_G?$basic_ofstream@DU?$char_traits@D@std@@@std@@UEAAPEAXI@Z 0000000180020240     EOH.obj
 0004:0000024c       $pdata$??_G?$basic_ifstream@DU?$char_traits@D@std@@@std@@UEAAPEAXI@Z 000000018002024c     EOH.obj
 0004:00000258       $pdata$??_G?$basic_filebuf@DU?$char_traits@D@std@@@std@@UEAAPEAXI@Z 0000000180020258     EOH.obj
 0004:00000264       $pdata$?_Tidy@?$vector@UpositionStruct@@V?$allocator@UpositionStruct@@@std@@@std@@AEAAXXZ 0000000180020264     EOH.obj
 0004:00000270       $pdata$0$?_Tidy@?$vector@UpositionStruct@@V?$allocator@UpositionStruct@@@std@@@std@@AEAAXXZ 0000000180020270     EOH.obj
 0004:0000027c       $pdata$1$?_Tidy@?$vector@UpositionStruct@@V?$allocator@UpositionStruct@@@std@@@std@@AEAAXXZ 000000018002027c     EOH.obj
 0004:00000288       $pdata$?_Tidy@?$vector@PEAVSecurity@@V?$allocator@PEAVSecurity@@@std@@@std@@AEAAXXZ 0000000180020288     EOH.obj
 0004:00000294       $pdata$??1sentry@?$basic_ostream@DU?$char_traits@D@std@@@std@@QEAA@XZ 0000000180020294     EOH.obj
 0004:000002a0       $pdata$?_Endwrite@?$basic_filebuf@DU?$char_traits@D@std@@@std@@IEAA_NXZ 00000001800202a0     EOH.obj
 0004:000002ac       $pdata$?close@?$basic_filebuf@DU?$char_traits@D@std@@@std@@QEAAPEAV12@XZ 00000001800202ac     EOH.obj
 0004:000002b8       $pdata$?deallocate@?$_Wrap_alloc@V?$allocator@UpositionStruct@@@std@@@std@@QEAAXPEAUpositionStruct@@_K@Z 00000001800202b8     EOH.obj
 0004:000002c4       $pdata$??1_Sentry_base@?$basic_ostream@DU?$char_traits@D@std@@@std@@QEAA@XZ 00000001800202c4     EOH.obj
 0004:000002c4       $pdata$??1_Sentry_base@?$basic_istream@DU?$char_traits@D@std@@@std@@QEAA@XZ 00000001800202c4     EOH.obj
 0004:000002d0       $pdata$?open@?$basic_filebuf@DU?$char_traits@D@std@@@std@@QEAAPEAV12@PEBDHH@Z 00000001800202d0     EOH.obj
 0004:000002dc       $pdata$??$?6U?$char_traits@D@std@@@std@@YAAEAV?$basic_ostream@DU?$char_traits@D@std@@@0@AEAV10@PEBD@Z 00000001800202dc     EOH.obj
 0004:000002e8       $pdata$??$endl@DU?$char_traits@D@std@@@std@@YAAEAV?$basic_ostream@DU?$char_traits@D@std@@@0@AEAV10@@Z 00000001800202e8     EOH.obj
 0004:000002f4       $pdata$??$?HDU?$char_traits@D@std@@V?$allocator@D@1@@std@@YA?AV?$basic_string@DU?$char_traits@D@std@@V?$allocator@D@2@@0@QEBD$$QEAV10@@Z 00000001800202f4     EOH.obj
 0004:00000300       $pdata$??$?HDU?$char_traits@D@std@@V?$allocator@D@1@@std@@YA?AV?$basic_string@DU?$char_traits@D@std@@V?$allocator@D@2@@0@$$QEAV10@QEBD@Z 0000000180020300     EOH.obj
 0004:0000030c       $pdata$??$?HDU?$char_traits@D@std@@V?$allocator@D@1@@std@@YA?AV?$basic_string@DU?$char_traits@D@std@@V?$allocator@D@2@@0@AEBV10@QEBD@Z 000000018002030c     EOH.obj
 0004:00000318       $pdata$??$?HDU?$char_traits@D@std@@V?$allocator@D@1@@std@@YA?AV?$basic_string@DU?$char_traits@D@std@@V?$allocator@D@2@@0@$$QEAV10@0@Z 0000000180020318     EOH.obj
 0004:00000324       $pdata$??$?HDU?$char_traits@D@std@@V?$allocator@D@1@@std@@YA?AV?$basic_string@DU?$char_traits@D@std@@V?$allocator@D@2@@0@AEBV10@$$QEAV10@@Z 0000000180020324     EOH.obj
 0004:00000330       $pdata$??$emplace_back@AEBUpositionStruct@@@?$vector@UpositionStruct@@V?$allocator@UpositionStruct@@@std@@@std@@QEAAXAEBUpositionStruct@@@Z 0000000180020330     EOH.obj
 0004:0000033c       $pdata$??$emplace_back@AEBQEAVSecurity@@@?$vector@PEAVSecurity@@V?$allocator@PEAVSecurity@@@std@@@std@@QEAAXAEBQEAVSecurity@@@Z 000000018002033c     EOH.obj
 0004:00000348       $pdata$2$??$emplace_back@AEBQEAVSecurity@@@?$vector@PEAVSecurity@@V?$allocator@PEAVSecurity@@@std@@@std@@QEAAXAEBQEAVSecurity@@@Z 0000000180020348     EOH.obj
 0004:00000354       $pdata$4$??$emplace_back@AEBQEAVSecurity@@@?$vector@PEAVSecurity@@V?$allocator@PEAVSecurity@@@std@@@std@@QEAAXAEBQEAVSecurity@@@Z 0000000180020354     EOH.obj
 0004:00000360       $pdata$5$??$emplace_back@AEBQEAVSecurity@@@?$vector@PEAVSecurity@@V?$allocator@PEAVSecurity@@@std@@@std@@QEAAXAEBQEAVSecurity@@@Z 0000000180020360     EOH.obj
 0004:0000036c       $pdata$??$use_facet@V?$codecvt@DDU_Mbstatet@@@std@@@std@@YAAEBV?$codecvt@DDU_Mbstatet@@@0@AEBVlocale@0@@Z 000000018002036c     EOH.obj
 0004:00000378       $pdata$?_Xlength@?$vector@PEAVSecurity@@V?$allocator@PEAVSecurity@@@std@@@std@@CAXXZ 0000000180020378     EOH.obj
 0004:00000378       $pdata$?_Xlength@?$vector@UpositionStruct@@V?$allocator@UpositionStruct@@@std@@@std@@CAXXZ 0000000180020378     EOH.obj
 0004:00000384       $pdata$?_Change_array@?$vector@UpositionStruct@@V?$allocator@UpositionStruct@@@std@@@std@@AEAAXQEAUpositionStruct@@_K1@Z 0000000180020384     EOH.obj
 0004:00000390       $pdata$0$?_Change_array@?$vector@UpositionStruct@@V?$allocator@UpositionStruct@@@std@@@std@@AEAAXQEAUpositionStruct@@_K1@Z 0000000180020390     EOH.obj
 0004:0000039c       $pdata$1$?_Change_array@?$vector@UpositionStruct@@V?$allocator@UpositionStruct@@@std@@@std@@AEAAXQEAUpositionStruct@@_K1@Z 000000018002039c     EOH.obj
 0004:000003a8       $pdata$?_Change_array@?$vector@PEAVSecurity@@V?$allocator@PEAVSecurity@@@std@@@std@@AEAAXQEAPEAVSecurity@@_K1@Z 00000001800203a8     EOH.obj
 0004:000003b4       $pdata$?insert@?$basic_string@DU?$char_traits@D@std@@V?$allocator@D@2@@std@@QEAAAEAV12@_KQEBD0@Z 00000001800203b4     EOH.obj
 0004:000003c0       $pdata$0$?insert@?$basic_string@DU?$char_traits@D@std@@V?$allocator@D@2@@std@@QEAAAEAV12@_KQEBD0@Z 00000001800203c0     EOH.obj
 0004:000003cc       $pdata$1$?insert@?$basic_string@DU?$char_traits@D@std@@V?$allocator@D@2@@std@@QEAAAEAV12@_KQEBD0@Z 00000001800203cc     EOH.obj
 0004:000003d8       $pdata$?insert@?$basic_string@DU?$char_traits@D@std@@V?$allocator@D@2@@std@@QEAAAEAV12@_KAEBV12@0_K@Z 00000001800203d8     EOH.obj
 0004:000003e4       $pdata$0$?insert@?$basic_string@DU?$char_traits@D@std@@V?$allocator@D@2@@std@@QEAAAEAV12@_KAEBV12@0_K@Z 00000001800203e4     EOH.obj
 0004:000003f0       $pdata$1$?insert@?$basic_string@DU?$char_traits@D@std@@V?$allocator@D@2@@std@@QEAAAEAV12@_KAEBV12@0_K@Z 00000001800203f0     EOH.obj
 0004:000003fc       $pdata$3$?insert@?$basic_string@DU?$char_traits@D@std@@V?$allocator@D@2@@std@@QEAAAEAV12@_KAEBV12@0_K@Z 00000001800203fc     EOH.obj
 0004:00000408       $pdata$4$?insert@?$basic_string@DU?$char_traits@D@std@@V?$allocator@D@2@@std@@QEAAAEAV12@_KAEBV12@0_K@Z 0000000180020408     EOH.obj
 0004:00000414       $pdata$??$_Insert_string@DU?$char_traits@D@std@@_K@std@@YAAEAV?$basic_ostream@DU?$char_traits@D@std@@@0@AEAV10@QEBD_K@Z 0000000180020414     EOH.obj
 0004:00000420       $pdata$??$getline@DU?$char_traits@D@std@@V?$allocator@D@2@@std@@YAAEAV?$basic_istream@DU?$char_traits@D@std@@@0@$$QEAV10@AEAV?$basic_string@DU?$char_traits@D@std@@V?$allocator@D@2@@0@D@Z 0000000180020420     EOH.obj
 0004:0000042c       $pdata$??1sentry@?$basic_istream@DU?$char_traits@D@std@@@std@@QEAA@XZ 000000018002042c     EOH.obj
 0004:00000438       $pdata$??Y?$basic_string@DU?$char_traits@D@std@@V?$allocator@D@2@@std@@QEAAAEAV01@D@Z 0000000180020438     EOH.obj
 0004:00000444       $pdata$??_Gbad_cast@std@@UEAAPEAXI@Z 0000000180020444     EOH.obj
 0004:00000444       $pdata$??_Gexception@std@@UEAAPEAXI@Z 0000000180020444     EOH.obj
 0004:00000450       $pdata$??0bad_cast@std@@QEAA@AEBV01@@Z 0000000180020450     EOH.obj
 0004:0000045c       $pdata$?append@?$basic_string@DU?$char_traits@D@std@@V?$allocator@D@2@@std@@QEAAAEAV12@QEBD_K@Z 000000018002045c     EOH.obj
 0004:00000468       $pdata$0$?append@?$basic_string@DU?$char_traits@D@std@@V?$allocator@D@2@@std@@QEAAAEAV12@QEBD_K@Z 0000000180020468     EOH.obj
 0004:00000474       $pdata$1$?append@?$basic_string@DU?$char_traits@D@std@@V?$allocator@D@2@@std@@QEAAAEAV12@QEBD_K@Z 0000000180020474     EOH.obj
 0004:00000480       $pdata$??0exception@std@@QEAA@AEBV01@@Z 0000000180020480     EOH.obj
 0004:0000048c       $pdata$??1locale@std@@QEAA@XZ 000000018002048c     EOH.obj
 0004:00000498       $pdata$_scprintf           0000000180020498     EOH.obj
 0004:000004a4       $pdata$?assign@?$basic_string@DU?$char_traits@D@std@@V?$allocator@D@2@@std@@QEAAAEAV12@_KD@Z 00000001800204a4     EOH.obj
 0004:000004b0       $pdata$sprintf_s           00000001800204b0     EOH.obj
 0004:000004bc       $pdata$?resize@?$basic_string@DU?$char_traits@D@std@@V?$allocator@D@2@@std@@QEAAX_KD@Z 00000001800204bc     EOH.obj
 0004:000004c8       $pdata$0$?resize@?$basic_string@DU?$char_traits@D@std@@V?$allocator@D@2@@std@@QEAAX_KD@Z 00000001800204c8     EOH.obj
 0004:000004d4       $pdata$2$?resize@?$basic_string@DU?$char_traits@D@std@@V?$allocator@D@2@@std@@QEAAX_KD@Z 00000001800204d4     EOH.obj
 0004:000004e0       $pdata$3$?resize@?$basic_string@DU?$char_traits@D@std@@V?$allocator@D@2@@std@@QEAAX_KD@Z 00000001800204e0     EOH.obj
 0004:000004ec       $pdata$??$_Floating_to_string@N@std@@YA?AV?$basic_string@DU?$char_traits@D@std@@V?$allocator@D@2@@0@PEBDN@Z 00000001800204ec     EOH.obj
 0004:000004f8       $pdata$?to_string@std@@YA?AV?$basic_string@DU?$char_traits@D@std@@V?$allocator@D@2@@1@N@Z 00000001800204f8     EOH.obj
 0004:00000504       $pdata$??_GCStatic@@UEAAPEAXI@Z 0000000180020504     EOH.obj
 0004:00000510       $pdata$??_GCButton@@UEAAPEAXI@Z 0000000180020510     EOH.obj
 0004:0000051c       $pdata$?append@?$basic_string@DU?$char_traits@D@std@@V?$allocator@D@2@@std@@QEAAAEAV12@AEBV12@_K_K@Z 000000018002051c     EOH.obj
 0004:00000528       $pdata$0$?append@?$basic_string@DU?$char_traits@D@std@@V?$allocator@D@2@@std@@QEAAAEAV12@AEBV12@_K_K@Z 0000000180020528     EOH.obj
 0004:00000534       $pdata$1$?append@?$basic_string@DU?$char_traits@D@std@@V?$allocator@D@2@@std@@QEAAAEAV12@AEBV12@_K_K@Z 0000000180020534     EOH.obj
 0004:00000540       $pdata$??$_Integral_to_string@DI@std@@YA?AV?$basic_string@DU?$char_traits@D@std@@V?$allocator@D@2@@0@I@Z 0000000180020540     EOH.obj
 0004:0000054c       $pdata$?to_string@std@@YA?AV?$basic_string@DU?$char_traits@D@std@@V?$allocator@D@2@@1@I@Z 000000018002054c     EOH.obj
 0004:00000558       $pdata$?_Xran@?$basic_string@DU?$char_traits@D@std@@V?$allocator@D@2@@std@@SAXXZ 0000000180020558     EOH.obj
 0004:00000564       $pdata$?erase@?$basic_string@DU?$char_traits@D@std@@V?$allocator@D@2@@std@@QEAAAEAV12@_K0@Z 0000000180020564     EOH.obj
 0004:00000570       $pdata$?assign@?$basic_string@DU?$char_traits@D@std@@V?$allocator@D@2@@std@@QEAAAEAV12@AEBV12@_K_K@Z 0000000180020570     EOH.obj
 0004:0000057c       $pdata$?_Xlen@?$basic_string@DU?$char_traits@D@std@@V?$allocator@D@2@@std@@SAXXZ 000000018002057c     EOH.obj
 0004:00000588       $pdata$?allocate@?$_Wrap_alloc@V?$allocator@D@std@@@std@@QEAAPEAD_K@Z 0000000180020588     EOH.obj
 0004:00000594       $pdata$?_Copy@?$basic_string@DU?$char_traits@D@std@@V?$allocator@D@2@@std@@QEAAX_K@Z 0000000180020594     EOH.obj
 0004:000005a0       $pdata$?assign@?$basic_string@DU?$char_traits@D@std@@V?$allocator@D@2@@std@@QEAAAEAV12@QEBD_K@Z 00000001800205a0     EOH.obj
 0004:000005ac       $pdata$?deallocate@?$_Wrap_alloc@V?$allocator@D@std@@@std@@QEAAXPEAD_K@Z 00000001800205ac     EOH.obj
 0004:000005b8       $pdata$?_Tidy_deallocate@?$basic_string@DU?$char_traits@D@std@@V?$allocator@D@2@@std@@QEAAXXZ 00000001800205b8     EOH.obj
 0004:000005c4       $pdata$??0ExtensionDerivedConfig@@QEAA@XZ 00000001800205c4     ExtensionDerivedConfig.obj
 0004:000005d0       $pdata$??_GExtensionDerivedConfig@@UEAAPEAXI@Z 00000001800205d0     ExtensionDerivedConfig.obj
 0004:000005dc       $pdata$?AddSettings@ExtensionDerivedConfig@@IEAAXXZ 00000001800205dc     ExtensionDerivedConfig.obj
 0004:000005e8       $pdata$?Clone@ExtensionDerivedConfig@@UEBAPEAVConfigBase@@XZ 00000001800205e8     ExtensionDerivedConfig.obj
 0004:000005f4       $pdata$GetExtensionInfo    00000001800205f4     ExtensionSample.obj
 0004:00000600       $pdata$AddMenuItemToString 0000000180020600     ExtensionSample.obj
 0004:0000060c       $pdata$GetTakionExtensionMenu 000000018002060c     ExtensionSample.obj
 0004:00000618       $pdata$ExecuteTakionCommand 0000000180020618     ExtensionSample.obj
 0004:00000624       $pdata$ExtensionInitialize 0000000180020624     ExtensionSample.obj
 0004:00000630       $pdata$1$ExtensionInitialize 0000000180020630     ExtensionSample.obj
 0004:0000063c       $pdata$2$ExtensionInitialize 000000018002063c     ExtensionSample.obj
 0004:00000648       $pdata$ExtensionTerminate  0000000180020648     ExtensionSample.obj
 0004:00000654       $pdata$??0ExtensionSample@@QEAA@XZ 0000000180020654     ExtensionSample.obj
 0004:00000660       $pdata$??_GExtensionSample@@UEAAPEAXI@Z 0000000180020660     ExtensionSample.obj
 0004:0000066c       $pdata$?InitInstance@ExtensionSample@@UEAAHXZ 000000018002066c     ExtensionSample.obj
 0004:00000678       $pdata$??_GTakionPopupWnd@@UEAAPEAXI@Z 0000000180020678     ExtensionSample.obj
 0004:00000684       $pdata$??_GTakionMessageBox@@UEAAPEAXI@Z 0000000180020684     ExtensionSample.obj
 0004:00000690       $pdata$?CreateTitle@@YA?AV?$basic_string@DU?$char_traits@D@std@@V?$allocator@D@2@@std@@AEBQEBDAEB_K@Z 0000000180020690     MainDialog.obj
 0004:0000069c       $pdata$??0MainDialog@@QEAA@PEBD_K0@Z 000000018002069c     MainDialog.obj
 0004:000006a8       $pdata$??_GMainDialog@@UEAAPEAXI@Z 00000001800206a8     MainDialog.obj
 0004:000006b4       $pdata$?OnInitDialog@MainDialog@@MEAAHXZ 00000001800206b4     MainDialog.obj
 0004:000006c0       $pdata$??_GTakionSettingTabDialog@@UEAAPEAXI@Z 00000001800206c0     MainDialog.obj
 0004:000006cc       $pdata$RawDllMain          00000001800206cc     mfcs140:dllmodul.obj
 0004:000006d8       $pdata$??_G_AFX_DLL_MODULE_STATE@@UEAAPEAXI@Z 00000001800206d8     mfcs140:dllmodul.obj
 0004:000006e4       $pdata$?AfxWndProcDllStatic@@YA_JPEAUHWND__@@I_K_J@Z 00000001800206e4     mfcs140:dllmodul.obj
 0004:000006f0       $pdata$DllMain             00000001800206f0     mfcs140:dllmodul.obj
 0004:000006fc       $pdata$InternalDllMain     00000001800206fc     mfcs140:dllmodul.obj
 0004:00000708       $pdata$?AfxGetApp@@YAPEAVCWinApp@@XZ 0000000180020708     mfcs140:dllmodulx.obj
 0004:00000720       $pdata$__scrt_acquire_startup_lock 0000000180020720     msvcrt:utility.obj
 0004:0000072c       $pdata$__scrt_dllmain_after_initialize_c 000000018002072c     msvcrt:utility.obj
 0004:00000738       $pdata$__scrt_dllmain_before_initialize_c 0000000180020738     msvcrt:utility.obj
 0004:00000744       $pdata$__scrt_dllmain_crt_thread_attach 0000000180020744     msvcrt:utility.obj
 0004:00000750       $pdata$__scrt_dllmain_crt_thread_detach 0000000180020750     msvcrt:utility.obj
 0004:0000075c       $pdata$__scrt_dllmain_exception_filter 000000018002075c     msvcrt:utility.obj
 0004:00000768       $pdata$__scrt_dllmain_uninitialize_c 0000000180020768     msvcrt:utility.obj
 0004:00000774       $pdata$__scrt_dllmain_uninitialize_critical 0000000180020774     msvcrt:utility.obj
 0004:00000780       $pdata$__scrt_initialize_crt 0000000180020780     msvcrt:utility.obj
 0004:0000078c       $pdata$__scrt_initialize_onexit_tables 000000018002078c     msvcrt:utility.obj
 0004:00000798       $pdata$__scrt_is_nonwritable_in_current_image 0000000180020798     msvcrt:utility.obj
 0004:000007a4       $pdata$__scrt_release_startup_lock 00000001800207a4     msvcrt:utility.obj
 0004:000007b0       $pdata$__scrt_uninitialize_crt 00000001800207b0     msvcrt:utility.obj
 0004:000007bc       $pdata$_onexit             00000001800207bc     msvcrt:utility.obj
 0004:000007c8       $pdata$atexit              00000001800207c8     msvcrt:utility.obj
 0004:000007d4       $pdata$??_Gtype_info@@UEAAPEAXI@Z 00000001800207d4     msvcrt:std_type_info_static.obj
 0004:000007e0       $pdata$?__scrt_initialize_thread_safe_statics@@YAHXZ 00000001800207e0     msvcrt:thread_safe_statics.obj
 0004:000007ec       $pdata$?__scrt_uninitialize_thread_safe_statics@@YAXXZ 00000001800207ec     msvcrt:thread_safe_statics.obj
 0004:000007f8       $pdata$_Init_thread_footer 00000001800207f8     msvcrt:thread_safe_statics.obj
 0004:00000804       $pdata$_Init_thread_header 0000000180020804     msvcrt:thread_safe_statics.obj
 0004:00000810       $pdata$_Init_thread_notify 0000000180020810     msvcrt:thread_safe_statics.obj
 0004:0000081c       $pdata$_Init_thread_wait   000000018002081c     msvcrt:thread_safe_statics.obj
 0004:00000828       $pdata$?dllmain_crt_dispatch@@YAHQEAUHINSTANCE__@@KQEAX@Z 0000000180020828     msvcrt:dll_dllmain.obj
 0004:00000834       $pdata$?dllmain_crt_process_attach@@YAHQEAUHINSTANCE__@@QEAX@Z 0000000180020834     msvcrt:dll_dllmain.obj
 0004:00000840       $pdata$?dllmain_crt_process_detach@@YAH_N@Z 0000000180020840     msvcrt:dll_dllmain.obj
 0004:0000084c       $pdata$?dllmain_dispatch@@YAHQEAUHINSTANCE__@@KQEAX@Z 000000018002084c     msvcrt:dll_dllmain.obj
 0004:00000858       $pdata$?dllmain_raw@@YAHQEAUHINSTANCE__@@KQEAX@Z 0000000180020858     msvcrt:dll_dllmain.obj
 0004:00000864       $pdata$_DllMainCRTStartup  0000000180020864     msvcrt:dll_dllmain.obj
 0004:00000870       $pdata$__raise_securityfailure 0000000180020870     msvcrt:gs_report.obj
 0004:0000087c       $pdata$__report_gsfailure  000000018002087c     msvcrt:gs_report.obj
 0004:00000888       $pdata$capture_previous_context 0000000180020888     msvcrt:gs_report.obj
 0004:00000894       $pdata$__isa_available_init 0000000180020894     msvcrt:_cpu_disp_.obj
 0004:000008a0       $pdata$__scrt_fastfail     00000001800208a0     msvcrt:utility_desktop.obj
 0004:000008ac       $pdata$__security_init_cookie 00000001800208ac     msvcrt:gs_support.obj
 0004:000008b8       $pdata$__scrt_initialize_default_local_stdio_options 00000001800208b8     msvcrt:default_local_stdio_options.obj
 0004:000008c4       $pdata$_RTC_Initialize     00000001800208c4     msvcrt:_initsect_.obj
 0004:000008d0       $pdata$_RTC_Terminate      00000001800208d0     msvcrt:_initsect_.obj
 0004:000008dc       $pdata$__GSHandlerCheck    00000001800208dc     msvcrt:_gshandler_.obj
 0004:000008e8       $pdata$__GSHandlerCheckCommon 00000001800208e8     msvcrt:_gshandler_.obj
 0004:000008f4       $pdata$??0CAtlBaseModule@ATL@@QEAA@XZ 00000001800208f4     atls:atlbase.obj
 0004:00000900       $pdata$??1CAtlBaseModule@ATL@@QEAA@XZ 0000000180020900     atls:atlbase.obj
 0004:0000090c       $pdata$??_G_Fac_node@std@@QEAAPEAXI@Z 000000018002090c     msvcprt:locale0_implib.obj
 0004:00000918       $pdata$?_Facet_Register@std@@YAXPEAV_Facet_base@1@@Z 0000000180020918     msvcprt:locale0_implib.obj
 0004:00000924       $pdata$_RawDllMainProxy    0000000180020924     mfcs140:rawdllmainproxy.obj
 0004:00000930       $pdata$_IsNonwritableInCurrentImage 0000000180020930     mfcs140:rawdllmainproxy.obj
 0004:0000093c       $pdata$__GSHandlerCheck_EH 000000018002093c     msvcrt:gshandlereh.obj
 0004:00000954       $pdata$?dtor$0@?0??GetCurrentDate@@YA?AV?$basic_string@DU?$char_traits@D@std@@V?$allocator@D@2@@std@@XZ@4HA 0000000180020954     EOH.obj
 0004:00000960       $pdata$?dtor$1@?0??GetCurrentDate@@YA?AV?$basic_string@DU?$char_traits@D@std@@V?$allocator@D@2@@std@@XZ@4HA 0000000180020960     EOH.obj
 0004:0000096c       $pdata$?dtor$2@?0??GetCurrentDate@@YA?AV?$basic_string@DU?$char_traits@D@std@@V?$allocator@D@2@@std@@XZ@4HA 000000018002096c     EOH.obj
 0004:00000978       $pdata$?dtor$3@?0??GetCurrentDate@@YA?AV?$basic_string@DU?$char_traits@D@std@@V?$allocator@D@2@@std@@XZ@4HA 0000000180020978     EOH.obj
 0004:00000984       $pdata$?dtor$5@?0??GetCurrentDate@@YA?AV?$basic_string@DU?$char_traits@D@std@@V?$allocator@D@2@@std@@XZ@4HA 0000000180020984     EOH.obj
 0004:00000990       $pdata$?dtor$6@?0??GetCurrentDate@@YA?AV?$basic_string@DU?$char_traits@D@std@@V?$allocator@D@2@@std@@XZ@4HA 0000000180020990     EOH.obj
 0004:0000099c       $pdata$?dtor$7@?0??GetCurrentDate@@YA?AV?$basic_string@DU?$char_traits@D@std@@V?$allocator@D@2@@std@@XZ@4HA 000000018002099c     EOH.obj
 0004:000009a8       $pdata$?dtor$8@?0??GetCurrentDate@@YA?AV?$basic_string@DU?$char_traits@D@std@@V?$allocator@D@2@@std@@XZ@4HA 00000001800209a8     EOH.obj
 0004:000009b4       $pdata$?dtor$9@?0??GetCurrentDate@@YA?AV?$basic_string@DU?$char_traits@D@std@@V?$allocator@D@2@@std@@XZ@4HA 00000001800209b4     EOH.obj
 0004:000009c0       $pdata$?dtor$10@?0??GetCurrentDate@@YA?AV?$basic_string@DU?$char_traits@D@std@@V?$allocator@D@2@@std@@XZ@4HA 00000001800209c0     EOH.obj
 0004:000009cc       $pdata$?dtor$0@?0???0?$basic_ofstream@DU?$char_traits@D@std@@@std@@QEAA@XZ@4HA 00000001800209cc     EOH.obj
 0004:000009d8       $pdata$?dtor$0@?0???0?$basic_ifstream@DU?$char_traits@D@std@@@std@@QEAA@XZ@4HA 00000001800209d8     EOH.obj
 0004:000009e4       $pdata$?catch$9@?0???$?6U?$char_traits@D@std@@@std@@YAAEAV?$basic_ostream@DU?$char_traits@D@std@@@0@AEAV10@PEBD@Z@4HA 00000001800209e4     EOH.obj
 0004:000009f0       $pdata$?dtor$0@?0???$?HDU?$char_traits@D@std@@V?$allocator@D@1@@std@@YA?AV?$basic_string@DU?$char_traits@D@std@@V?$allocator@D@2@@0@AEBV10@QEBD@Z@4HA 00000001800209f0     EOH.obj
 0004:000009f0       $pdata$?dtor$0@?0??CreateTitle@@YA?AV?$basic_string@DU?$char_traits@D@std@@V?$allocator@D@2@@std@@AEBQEBDAEB_K@Z@4HA 00000001800209f0     MainDialog.obj
 0004:000009fc       $pdata$?dtor$16@?0???$emplace_back@AEBUpositionStruct@@@?$vector@UpositionStruct@@V?$allocator@UpositionStruct@@@std@@@std@@QEAAXAEBUpositionStruct@@@Z@4HA 00000001800209fc     EOH.obj
 0004:00000a08       $pdata$?dtor$69@?0???$emplace_back@AEBUpositionStruct@@@?$vector@UpositionStruct@@V?$allocator@UpositionStruct@@@std@@@std@@QEAAXAEBUpositionStruct@@@Z@4HA 0000000180020a08     EOH.obj
 0004:00000a14       $pdata$?catch$89@?0???$emplace_back@AEBUpositionStruct@@@?$vector@UpositionStruct@@V?$allocator@UpositionStruct@@@std@@@std@@QEAAXAEBUpositionStruct@@@Z@4HA 0000000180020a14     EOH.obj
 0004:00000a20       $pdata$?catch$8@?0???$_Insert_string@DU?$char_traits@D@std@@_K@std@@YAAEAV?$basic_ostream@DU?$char_traits@D@std@@@0@AEAV10@QEBD_K@Z@4HA 0000000180020a20     EOH.obj
 0004:00000a2c       $pdata$?catch$35@?0???$getline@DU?$char_traits@D@std@@V?$allocator@D@2@@std@@YAAEAV?$basic_istream@DU?$char_traits@D@std@@@0@$$QEAV10@AEAV?$basic_string@DU?$char_traits@D@std@@V?$allocator@D@2@@0@D@Z@4HA 0000000180020a2c     EOH.obj
 0004:00000a38       $pdata$?dtor$0@?0???$_Floating_to_string@N@std@@YA?AV?$basic_string@DU?$char_traits@D@std@@V?$allocator@D@2@@0@PEBDN@Z@4HA 0000000180020a38     EOH.obj
 0004:00000a44       $pdata$?catch$16@?0??_Copy@?$basic_string@DU?$char_traits@D@std@@V?$allocator@D@2@@std@@QEAAX_K@Z@4HA 0000000180020a44     EOH.obj
 0004:00000a50       $pdata$?dtor$0@?0??Clone@ExtensionDerivedConfig@@UEBAPEAVConfigBase@@XZ@4HA 0000000180020a50     ExtensionDerivedConfig.obj
 0004:00000a5c       $pdata$InternalDllMain$catch$2 0000000180020a5c     mfcs140:dllmodul.obj
 0004:00000a68       $pdata$?fin$0@?0??dllmain_crt_process_attach@@YAHQEAUHINSTANCE__@@QEAX@Z@4HA 0000000180020a68     msvcrt:dll_dllmain.obj
 0004:00000a74       $pdata$?fin$0@?0??dllmain_crt_process_detach@@YAH_N@Z@4HA 0000000180020a74     msvcrt:dll_dllmain.obj
 0004:00000a80       $pdata$?filt$0@?0??dllmain_dispatch@@YAHQEAUHINSTANCE__@@KQEAX@Z@4HA 0000000180020a80     msvcrt:dll_dllmain.obj
 0004:00000a8c       $pdata$__scrt_is_nonwritable_in_current_image$filt$0 0000000180020a8c     msvcrt:utility.obj
 0004:00000a8c       $pdata$_IsNonwritableInCurrentImage$filt$0 0000000180020a8c     mfcs140:rawdllmainproxy.obj
 0004:00000a98       $pdata$??__FoutFile@@YAXXZ 0000000180020a98     EOH.obj
 0004:00000aa4       $pdata$??__FtheApp@@YAXXZ  0000000180020aa4     ExtensionSample.obj
 0004:00000ab0       $pdata$??__F_Fac_tidy_reg@std@@YAXXZ 0000000180020ab0     msvcprt:locale0_implib.obj
 0006:000000a0       $R000000                   00000001800220a0     ExtensionSample.res
 0006:00000320       $R000280                   0000000180022320     ExtensionSample.res

 Exports

  ordinal    name

        2    GetExtensionCode
        3    ExtensionInitialize
        4    ExtensionTerminate
        5    GetExtensionVersion
        6    GetUtilsVersion
        7    GetUtilsHeaderVersion
        8    GetUtilsGuiVersion
        9    GetUtilsGuiHeaderVersion
       10    GetTakionUtilsVersion
       11    GetTakionUtilsHeaderVersion
       12    GetTakionGuiVersion
       13    GetTakionGuiHeaderVersion
       14    GetTakionDataVersion
       15    GetTakionDataHeaderVersion
       16    GetTakionLogVersion
       17    GetTakionLogHeaderVersion
       18    GetObserverVersion
       19    GetObserverHeaderVersion
       21    GetReceiverHeaderVersion
       22    GetTakionExtensionDescription
       23    GetTakionExtensionMenu
       24    ExecuteTakionCommand
       25    KeyStrokeAndCommand
       26    SymbolEnteredInMmBox
       27    SecurityRefreshed
       28    TakionMoveWindows
       29    ActiveMmBoxChanged
       30    CurrentAccountSet
       31    AppActivated
       32    SaveLayout
       33    SaveLayoutAs
       34    OpenLayout
       35    RestoreLayout
       36    GetLayoutFilePath
       37    TakionCreateExtensionTool
       38    MessageReport
       39    MarketSorterNotifyAdded
       40    MarketSorterContents
       41    MarketSorterContentsDone
       42    MarketSorterNotifyRemoved
       43    MarketSorterNotifyPrefixChanged
       44    NotifyMarketSorterSymbol
       45    MarketSorterNotifyAllRowsRemoved
       46    LineDoubleClicked
       47    GetExtensionInfo
       48    CommandWindowRemoved
       49    LayoutChanged
       50    ExtensionIsDebug
       51    MainThreadAvailableDataProcessed
       52    MainThreadIdleState
       53    NextDayStarted
